

Microchip Technology PIC18 LITE Macro Assembler V1.44 build -154322312 
                                                                                               Thu Dec 21 18:23:59 2017

Microchip Technology Omniscient Code Generator v1.44 (Free mode) build 201709140600
     1                           	processor	18F4520
     2                           	fnconf	rparam,??,?,0
     3                           	opt	pw 120
     4                           	opt	lm
     5                           	psect	cinit,global,reloc=2,class=CODE,delta=1
     6                           	psect	bssCOMRAM,global,class=COMRAM,space=1,delta=1,noexec
     7                           	psect	cstackCOMRAM,global,class=COMRAM,space=1,delta=1,noexec
     8                           	psect	text0,global,reloc=2,class=CODE,delta=1
     9                           	psect	text1,global,reloc=2,class=CODE,delta=1
    10                           	psect	text2,global,reloc=2,class=CODE,delta=1
    11                           	psect	text3,global,reloc=2,class=CODE,delta=1
    12                           	psect	intcode,global,reloc=2,class=CODE,delta=1
    13                           	psect	intcode_body,global,reloc=2,class=CODE,delta=1
    14                           	psect	text5,global,reloc=2,class=CODE,delta=1
    15                           	psect	text6,global,reloc=2,class=CODE,delta=1
    16                           	psect	intsave_regs,global,class=BIGRAM,space=1,delta=1,noexec
    17                           	psect	rparam,global,class=COMRAM,space=1,delta=1,noexec
    18                           	psect	temp,global,ovrld,common,class=COMRAM,space=1,delta=1
    19  0000                     
    20                           ; Version 1.44
    21                           ; Generated 14/09/2017 GMT
    22                           ; 
    23                           ; Copyright © 2017, Microchip Technology Inc. and its subsidiaries ("Microchip")
    24                           ; All rights reserved.
    25                           ; 
    26                           ; This software is developed by Microchip Technology Inc. and its subsidiaries ("Microch
      +                          ip").
    27                           ; 
    28                           ; Redistribution and use in source and binary forms, with or without modification, are
    29                           ; permitted provided that the following conditions are met:
    30                           ; 
    31                           ;     1. Redistributions of source code must retain the above copyright notice, this lis
      +                          t of
    32                           ;        conditions and the following disclaimer.
    33                           ; 
    34                           ;     2. Redistributions in binary form must reproduce the above copyright notice, this 
      +                          list
    35                           ;        of conditions and the following disclaimer in the documentation and/or other
    36                           ;        materials provided with the distribution.
    37                           ; 
    38                           ;     3. Microchip's name may not be used to endorse or promote products derived from th
      +                          is
    39                           ;        software without specific prior written permission.
    40                           ; 
    41                           ; THIS SOFTWARE IS PROVIDED BY MICROCHIP "AS IS" AND ANY EXPRESS OR IMPLIED WARRANTIES,
    42                           ; INCLUDING, BUT NOT LIMITED TO, THE IMPLIED WARRANTIES OF MERCHANTABILITY AND FITNESS F
      +                          OR
    43                           ; PURPOSE ARE DISCLAIMED.  IN NO EVENT SHALL MICROCHIP BE LIABLE FOR ANY DIRECT, INDIREC
      +                          T,
    44                           ; INCIDENTAL, SPECIAL, EXEMPLARY, OR CONSEQUENTIAL DAMAGES (INCLUDING BUT NOT LIMITED TO
    45                           ; PROCUREMENT OF SUBSTITUTE GOODS OR SERVICES; LOSS OF USE, DATA OR PROFITS; OR BUSINESS
    46                           ; INTERRUPTION) HOWSOEVER CAUSED AND ON ANY THEORY OF LIABILITY, WHETHER IN CONTRACT, ST
      +                          RICT
    47                           ; LIABILITY, OR TORT (INCLUDING NEGLIGENCE OR OTHERWISE) ARISING IN ANY WAY OUT OF THE U
      +                          SE OF
    48                           ; THIS SOFTWARE, EVEN IF ADVISED OF THE POSSIBILITY OF SUCH DAMAGE.
    49                           ; 
    50                           ; 
    51                           ; Code-generator required, PIC18F4520 Definitions
    52                           ; 
    53                           ; SFR Addresses
    54  0000                     _LATBbits	set	3978
    55  0000                     _LATDbits	set	3980
    56  0000                     _LATCbits	set	3979
    57  0000                     _PORTBbits	set	3969
    58  0000                     _TRISBbits	set	3987
    59  0000                     _LATD	set	3980
    60  0000                     _LATC	set	3979
    61  0000                     _TRISD	set	3989
    62  0000                     _TRISC	set	3988
    63  0000                     _RB5	set	31757
    64  0000                     _RCONbits	set	4048
    65  0000                     _OSCCONbits	set	4051
    66  0000                     _INTCON2bits	set	4081
    67  0000                     _INTCONbits	set	4082
    68                           
    69                           ; #config settings
    70  0000                     
    71                           	psect	cinit
    72  000436                     __pcinit:
    73                           	opt stack 0
    74  000436                     start_initialization:
    75                           	opt stack 0
    76  000436                     __initialization:
    77                           	opt stack 0
    78                           
    79                           ; Clear objects allocated to COMRAM (15 bytes)
    80  000436  EE00  F025         	lfsr	0,__pbssCOMRAM
    81  00043A  0E0F               	movlw	15
    82  00043C                     clear_0:
    83  00043C  6AEE               	clrf	postinc0,c
    84  00043E  06E8               	decf	wreg,f,c
    85  000440  E1FD               	bnz	clear_0
    86  000442                     end_of_initialization:
    87                           	opt stack 0
    88  000442                     __end_of__initialization:
    89                           	opt stack 0
    90  000442  9034               	bcf	int$flags,0,c	;clear compiler interrupt flag (level 1)
    91  000444  9234               	bcf	int$flags,1,c	;clear compiler interrupt flag (level 2)
    92  000446  0100               	movlb	0
    93  000448  EF93  F001         	goto	_main	;jump to C main() function
    94                           postinc0	equ	0xFEE
    95                           wreg	equ	0xFE8
    96                           
    97                           	psect	bssCOMRAM
    98  000025                     __pbssCOMRAM:
    99                           	opt stack 0
   100  000025                     _distance:
   101                           	opt stack 0
   102  000025                     	ds	3
   103  000028                     _flag:
   104                           	opt stack 0
   105  000028                     	ds	2
   106  00002A                     _effect:
   107                           	opt stack 0
   108  00002A                     	ds	2
   109  00002C                     _white:
   110                           	opt stack 0
   111  00002C                     	ds	2
   112  00002E                     _blue:
   113                           	opt stack 0
   114  00002E                     	ds	2
   115  000030                     _green:
   116                           	opt stack 0
   117  000030                     	ds	2
   118  000032                     _red:
   119                           	opt stack 0
   120  000032                     	ds	2
   121                           postinc0	equ	0xFEE
   122                           wreg	equ	0xFE8
   123                           
   124                           	psect	cstackCOMRAM
   125  000001                     __pcstackCOMRAM:
   126                           	opt stack 0
   127  000001                     rgbshow@rval:
   128                           	opt stack 0
   129                           
   130                           ; 2 bytes @ 0x0
   131  000001                     	ds	2
   132  000003                     rgbshow@gval:
   133                           	opt stack 0
   134                           
   135                           ; 2 bytes @ 0x2
   136  000003                     	ds	2
   137  000005                     rgbshow@bval:
   138                           	opt stack 0
   139                           
   140                           ; 2 bytes @ 0x4
   141  000005                     	ds	2
   142  000007                     rgbshow@i:
   143                           	opt stack 0
   144                           
   145                           ; 2 bytes @ 0x6
   146  000007                     	ds	2
   147  000009                     ??_rgbstart:
   148                           
   149                           ; 1 bytes @ 0x8
   150  000009                     	ds	2
   151  00000B                     ??_Hi:
   152                           
   153                           ; 1 bytes @ 0xA
   154  00000B                     	ds	18
   155  00001D                     wshow@wval:
   156                           	opt stack 0
   157                           
   158                           ; 2 bytes @ 0x1C
   159  00001D                     	ds	2
   160  00001F                     wshow@i:
   161                           	opt stack 0
   162                           
   163                           ; 2 bytes @ 0x1E
   164  00001F                     	ds	2
   165  000021                     main@k:
   166                           	opt stack 0
   167                           
   168                           ; 2 bytes @ 0x20
   169  000021                     	ds	2
   170  000023                     main@l:
   171                           	opt stack 0
   172                           
   173                           ; 2 bytes @ 0x22
   174  000023                     	ds	2
   175                           postinc0	equ	0xFEE
   176                           wreg	equ	0xFE8
   177                           
   178 ;;
   179 ;;Main: autosize = 0, tempsize = 0, incstack = 0, save=0
   180 ;;
   181 ;; *************** function _main *****************
   182 ;; Defined at:
   183 ;;		line 178 in file "mainproject.c"
   184 ;; Parameters:    Size  Location     Type
   185 ;;		None
   186 ;; Auto vars:     Size  Location     Type
   187 ;;  l               2   34[COMRAM] int 
   188 ;;  k               2   32[COMRAM] int 
   189 ;; Return value:  Size  Location     Type
   190 ;;                  1    wreg      void 
   191 ;; Registers used:
   192 ;;		wreg, status,2, status,0, cstack
   193 ;; Tracked objects:
   194 ;;		On entry : 0/0
   195 ;;		On exit  : 0/0
   196 ;;		Unchanged: 0/0
   197 ;; Data sizes:     COMRAM   BANK0   BANK1   BANK2   BANK3   BANK4   BANK5
   198 ;;      Params:         0       0       0       0       0       0       0
   199 ;;      Locals:         4       0       0       0       0       0       0
   200 ;;      Temps:          0       0       0       0       0       0       0
   201 ;;      Totals:         4       0       0       0       0       0       0
   202 ;;Total ram usage:        4 bytes
   203 ;; Hardware stack levels required when called:    5
   204 ;; This function calls:
   205 ;;		_init
   206 ;;		_wstart
   207 ;; This function is called by:
   208 ;;		Startup code after reset
   209 ;; This function uses a non-reentrant model
   210 ;;
   211                           
   212                           	psect	text0
   213  000326                     __ptext0:
   214                           	opt stack 0
   215  000326                     _main:
   216                           	opt stack 26
   217                           
   218                           ;mainproject.c: 179: init();
   219                           
   220                           ;incstack = 0
   221  000326  ECBC  F001         	call	_init	;wreg free
   222  00032A                     
   223                           ;mainproject.c: 181: wstart();
   224  00032A  ECE5  F001         	call	_wstart	;wreg free
   225                           
   226                           ;mainproject.c: 182: int k = 10 , l = 255;
   227  00032E  0E00               	movlw	0
   228  000330  6E22               	movwf	main@k+1,c
   229  000332  0E0A               	movlw	10
   230  000334  6E21               	movwf	main@k,c
   231  000336  0E00               	movlw	0
   232  000338  6E24               	movwf	main@l+1,c
   233  00033A  6823               	setf	main@l,c
   234                           
   235                           ;mainproject.c: 183: while( k > 0 ) {
   236  00033C  D011               	goto	l110
   237  00033E                     l1055:
   238                           
   239                           ;mainproject.c: 184: l = 255;
   240  00033E  0E00               	movlw	0
   241  000340  6E24               	movwf	main@l+1,c
   242  000342  6823               	setf	main@l,c
   243                           
   244                           ;mainproject.c: 185: while( l > 0) {
   245  000344  D003               	goto	l112
   246  000346                     l1057:
   247                           
   248                           ;mainproject.c: 186: l--;
   249  000346  0623               	decf	main@l,f,c
   250  000348  A0D8               	btfss	status,0,c
   251  00034A  0624               	decf	main@l+1,f,c
   252  00034C                     l112:
   253  00034C  BE24               	btfsc	main@l+1,7,c
   254  00034E  D005               	goto	u440
   255  000350  5024               	movf	main@l+1,w,c
   256  000352  E1F9               	bnz	l1057
   257  000354  0423               	decf	main@l,w,c
   258  000356  B0D8               	btfsc	status,0,c
   259  000358  D7F6               	goto	l113
   260  00035A                     u440:
   261                           
   262                           ;mainproject.c: 187: }
   263                           ;mainproject.c: 188: k--;
   264  00035A  0621               	decf	main@k,f,c
   265  00035C  A0D8               	btfss	status,0,c
   266  00035E  0622               	decf	main@k+1,f,c
   267  000360                     l110:
   268  000360  BE22               	btfsc	main@k+1,7,c
   269  000362  D005               	goto	u450
   270  000364  5022               	movf	main@k+1,w,c
   271  000366  E1EB               	bnz	l1055
   272  000368  0421               	decf	main@k,w,c
   273  00036A  B0D8               	btfsc	status,0,c
   274  00036C  D7E8               	goto	l111
   275  00036E                     u450:
   276                           
   277                           ;mainproject.c: 189: }
   278                           ;mainproject.c: 191: if(RB5){
   279  00036E  AA81               	btfss	3969,5,c	;volatile
   280  000370  D7DC               	goto	l109
   281                           
   282                           ;mainproject.c: 192: PORTBbits.RB0=1;
   283  000372  8081               	bsf	3969,0,c	;volatile
   284                           
   285                           ;mainproject.c: 193: INTCONbits.INT0IF = 1;
   286  000374  82F2               	bsf	intcon,1,c	;volatile
   287  000376  D7D9               	goto	l109
   288  000378                     __end_of_main:
   289                           	opt stack 0
   290                           intcon	equ	0xFF2
   291                           postinc0	equ	0xFEE
   292                           wreg	equ	0xFE8
   293                           status	equ	0xFD8
   294                           
   295 ;; *************** function _wstart *****************
   296 ;; Defined at:
   297 ;;		line 155 in file "mainproject.c"
   298 ;; Parameters:    Size  Location     Type
   299 ;;		None
   300 ;; Auto vars:     Size  Location     Type
   301 ;;		None
   302 ;; Return value:  Size  Location     Type
   303 ;;                  1    wreg      void 
   304 ;; Registers used:
   305 ;;		wreg, status,2, status,0, cstack
   306 ;; Tracked objects:
   307 ;;		On entry : 0/0
   308 ;;		On exit  : 0/0
   309 ;;		Unchanged: 0/0
   310 ;; Data sizes:     COMRAM   BANK0   BANK1   BANK2   BANK3   BANK4   BANK5
   311 ;;      Params:         0       0       0       0       0       0       0
   312 ;;      Locals:         0       0       0       0       0       0       0
   313 ;;      Temps:          0       0       0       0       0       0       0
   314 ;;      Totals:         0       0       0       0       0       0       0
   315 ;;Total ram usage:        0 bytes
   316 ;; Hardware stack levels used:    1
   317 ;; Hardware stack levels required when called:    4
   318 ;; This function calls:
   319 ;;		_wshow
   320 ;; This function is called by:
   321 ;;		_main
   322 ;; This function uses a non-reentrant model
   323 ;;
   324                           
   325                           	psect	text1
   326  0003CA                     __ptext1:
   327                           	opt stack 0
   328  0003CA                     _wstart:
   329                           	opt stack 26
   330                           
   331                           ;mainproject.c: 156: while(white!=200){
   332                           
   333                           ;incstack = 0
   334  0003CA  D008               	goto	l92
   335  0003CC                     
   336                           ;mainproject.c: 157: white++;
   337  0003CC  4A2C               	infsnz	_white,f,c
   338  0003CE  2A2D               	incf	_white+1,f,c
   339                           
   340                           ;mainproject.c: 158: wshow(white);
   341  0003D0  C02C  F01D         	movff	_white,wshow@wval
   342  0003D4  C02D  F01E         	movff	_white+1,wshow@wval+1
   343  0003D8  EC02  F002         	call	_wshow	;wreg free
   344  0003DC                     l92:
   345  0003DC  0EC8               	movlw	200
   346  0003DE  182C               	xorwf	_white,w,c
   347  0003E0  102D               	iorwf	_white+1,w,c
   348  0003E2  B4D8               	btfsc	status,2,c
   349  0003E4  D00A               	goto	l95
   350  0003E6  D7F2               	goto	l93
   351  0003E8                     
   352                           ;mainproject.c: 161: white--;
   353  0003E8  062C               	decf	_white,f,c
   354  0003EA  A0D8               	btfss	status,0,c
   355  0003EC  062D               	decf	_white+1,f,c
   356                           
   357                           ;mainproject.c: 162: wshow(white);
   358  0003EE  C02C  F01D         	movff	_white,wshow@wval
   359  0003F2  C02D  F01E         	movff	_white+1,wshow@wval+1
   360  0003F6  EC02  F002         	call	_wshow	;wreg free
   361  0003FA                     l95:
   362  0003FA  502C               	movf	_white,w,c
   363  0003FC  102D               	iorwf	_white+1,w,c
   364  0003FE  B4D8               	btfsc	status,2,c
   365  000400  0012               	return	
   366  000402  D7F2               	goto	l96
   367  000404                     __end_of_wstart:
   368                           	opt stack 0
   369                           intcon	equ	0xFF2
   370                           postinc0	equ	0xFEE
   371                           wreg	equ	0xFE8
   372                           status	equ	0xFD8
   373                           
   374 ;; *************** function _wshow *****************
   375 ;; Defined at:
   376 ;;		line 147 in file "mainproject.c"
   377 ;; Parameters:    Size  Location     Type
   378 ;;  wval            2   28[COMRAM] int 
   379 ;; Auto vars:     Size  Location     Type
   380 ;;  i               2   30[COMRAM] int 
   381 ;; Return value:  Size  Location     Type
   382 ;;                  1    wreg      void 
   383 ;; Registers used:
   384 ;;		wreg, status,2, status,0
   385 ;; Tracked objects:
   386 ;;		On entry : 0/0
   387 ;;		On exit  : 0/0
   388 ;;		Unchanged: 0/0
   389 ;; Data sizes:     COMRAM   BANK0   BANK1   BANK2   BANK3   BANK4   BANK5
   390 ;;      Params:         2       0       0       0       0       0       0
   391 ;;      Locals:         2       0       0       0       0       0       0
   392 ;;      Temps:          0       0       0       0       0       0       0
   393 ;;      Totals:         4       0       0       0       0       0       0
   394 ;;Total ram usage:        4 bytes
   395 ;; Hardware stack levels used:    1
   396 ;; Hardware stack levels required when called:    3
   397 ;; This function calls:
   398 ;;		Nothing
   399 ;; This function is called by:
   400 ;;		_wstart
   401 ;; This function uses a non-reentrant model
   402 ;;
   403                           
   404                           	psect	text2
   405  000404                     __ptext2:
   406                           	opt stack 0
   407  000404                     _wshow:
   408                           	opt stack 26
   409                           
   410                           ;mainproject.c: 149: LATDbits.LATD4=1;
   411                           
   412                           ;incstack = 0
   413  000404  888C               	bsf	3980,4,c	;volatile
   414                           
   415                           ;mainproject.c: 150: for(int i=0;i<200;i++){
   416  000406  0E00               	movlw	0
   417  000408  6E20               	movwf	wshow@i+1,c
   418  00040A  0E00               	movlw	0
   419  00040C  6E1F               	movwf	wshow@i,c
   420  00040E                     l945:
   421  00040E  BE20               	btfsc	wshow@i+1,7,c
   422  000410  D006               	goto	l86
   423  000412  5020               	movf	wshow@i+1,w,c
   424  000414  E10F               	bnz	l89
   425  000416  0EC8               	movlw	200
   426  000418  5C1F               	subwf	wshow@i,w,c
   427  00041A  B0D8               	btfsc	status,0,c
   428  00041C  0012               	return	
   429  00041E                     l86:
   430                           
   431                           ;mainproject.c: 151: if((wval--)==0) LATDbits.LATD4=0;
   432  00041E  061D               	decf	wshow@wval,f,c
   433  000420  A0D8               	btfss	status,0,c
   434  000422  061E               	decf	wshow@wval+1,f,c
   435  000424  281D               	incf	wshow@wval,w,c
   436  000426  E103               	bnz	l953
   437  000428  281E               	incf	wshow@wval+1,w,c
   438  00042A  B4D8               	btfsc	status,2,c
   439  00042C  988C               	bcf	3980,4,c	;volatile
   440  00042E                     l953:
   441  00042E  4A1F               	infsnz	wshow@i,f,c
   442  000430  2A20               	incf	wshow@i+1,f,c
   443  000432  D7ED               	goto	l945
   444  000434                     l89:
   445  000434  0012               	return		;funcret
   446  000436                     __end_of_wshow:
   447                           	opt stack 0
   448                           intcon	equ	0xFF2
   449                           postinc0	equ	0xFEE
   450                           wreg	equ	0xFE8
   451                           status	equ	0xFD8
   452                           
   453 ;; *************** function _init *****************
   454 ;; Defined at:
   455 ;;		line 38 in file "mainproject.c"
   456 ;; Parameters:    Size  Location     Type
   457 ;;		None
   458 ;; Auto vars:     Size  Location     Type
   459 ;;		None
   460 ;; Return value:  Size  Location     Type
   461 ;;                  1    wreg      void 
   462 ;; Registers used:
   463 ;;		wreg, status,2
   464 ;; Tracked objects:
   465 ;;		On entry : 0/0
   466 ;;		On exit  : 0/0
   467 ;;		Unchanged: 0/0
   468 ;; Data sizes:     COMRAM   BANK0   BANK1   BANK2   BANK3   BANK4   BANK5
   469 ;;      Params:         0       0       0       0       0       0       0
   470 ;;      Locals:         0       0       0       0       0       0       0
   471 ;;      Temps:          0       0       0       0       0       0       0
   472 ;;      Totals:         0       0       0       0       0       0       0
   473 ;;Total ram usage:        0 bytes
   474 ;; Hardware stack levels used:    1
   475 ;; Hardware stack levels required when called:    3
   476 ;; This function calls:
   477 ;;		Nothing
   478 ;; This function is called by:
   479 ;;		_main
   480 ;; This function uses a non-reentrant model
   481 ;;
   482                           
   483                           	psect	text3
   484  000378                     __ptext3:
   485                           	opt stack 0
   486  000378                     _init:
   487                           	opt stack 27
   488                           
   489                           ;mainproject.c: 40: OSCCONbits.IRCF2 = 1;
   490                           
   491                           ;incstack = 0
   492  000378  8CD3               	bsf	4051,6,c	;volatile
   493                           
   494                           ;mainproject.c: 41: OSCCONbits.IRCF1 = 1;
   495  00037A  8AD3               	bsf	4051,5,c	;volatile
   496                           
   497                           ;mainproject.c: 42: OSCCONbits.IRCF0 = 0;
   498  00037C  98D3               	bcf	4051,4,c	;volatile
   499                           
   500                           ;mainproject.c: 44: TRISC=0;
   501  00037E  0E00               	movlw	0
   502  000380  6E94               	movwf	3988,c	;volatile
   503                           
   504                           ;mainproject.c: 45: TRISD=0;
   505  000382  0E00               	movlw	0
   506  000384  6E95               	movwf	3989,c	;volatile
   507                           
   508                           ;mainproject.c: 46: LATC=0;
   509  000386  0E00               	movlw	0
   510  000388  6E8B               	movwf	3979,c	;volatile
   511                           
   512                           ;mainproject.c: 47: LATD=0;
   513  00038A  0E00               	movlw	0
   514  00038C  6E8C               	movwf	3980,c	;volatile
   515                           
   516                           ;mainproject.c: 49: TRISBbits.TRISB0=1;
   517  00038E  8093               	bsf	3987,0,c	;volatile
   518                           
   519                           ;mainproject.c: 50: red=0;
   520  000390  0E00               	movlw	0
   521  000392  6E33               	movwf	_red+1,c
   522  000394  0E00               	movlw	0
   523  000396  6E32               	movwf	_red,c
   524                           
   525                           ;mainproject.c: 51: green=0;
   526  000398  0E00               	movlw	0
   527  00039A  6E31               	movwf	_green+1,c
   528  00039C  0E00               	movlw	0
   529  00039E  6E30               	movwf	_green,c
   530                           
   531                           ;mainproject.c: 52: blue=0;
   532  0003A0  0E00               	movlw	0
   533  0003A2  6E2F               	movwf	_blue+1,c
   534  0003A4  0E00               	movlw	0
   535  0003A6  6E2E               	movwf	_blue,c
   536                           
   537                           ;mainproject.c: 53: effect=0;
   538  0003A8  0E00               	movlw	0
   539  0003AA  6E2B               	movwf	_effect+1,c
   540  0003AC  0E00               	movlw	0
   541  0003AE  6E2A               	movwf	_effect,c
   542                           
   543                           ;mainproject.c: 55: RCONbits.IPEN=1;
   544  0003B0  8ED0               	bsf	4048,7,c	;volatile
   545                           
   546                           ;mainproject.c: 56: INTCONbits.GIEH=1;
   547  0003B2  8EF2               	bsf	intcon,7,c	;volatile
   548                           
   549                           ;mainproject.c: 57: INTCONbits.INT0IE=1;
   550  0003B4  88F2               	bsf	intcon,4,c	;volatile
   551                           
   552                           ;mainproject.c: 58: INTCONbits.INT0IF=0;
   553  0003B6  92F2               	bcf	intcon,1,c	;volatile
   554                           
   555                           ;mainproject.c: 59: INTCON2bits.INTEDG0=1;
   556  0003B8  8CF1               	bsf	intcon2,6,c	;volatile
   557                           
   558                           ;mainproject.c: 60: PORTBbits.RB0=0;
   559  0003BA  9081               	bcf	3969,0,c	;volatile
   560                           
   561                           ;mainproject.c: 62: TRISBbits.TRISB4=0;
   562  0003BC  9893               	bcf	3987,4,c	;volatile
   563                           
   564                           ;mainproject.c: 63: TRISBbits.TRISB5=1;
   565  0003BE  8A93               	bsf	3987,5,c	;volatile
   566                           
   567                           ;mainproject.c: 65: white=0;
   568  0003C0  0E00               	movlw	0
   569  0003C2  6E2D               	movwf	_white+1,c
   570  0003C4  0E00               	movlw	0
   571  0003C6  6E2C               	movwf	_white,c
   572  0003C8  0012               	return		;funcret
   573  0003CA                     __end_of_init:
   574                           	opt stack 0
   575                           intcon	equ	0xFF2
   576                           intcon2	equ	0xFF1
   577                           postinc0	equ	0xFEE
   578                           wreg	equ	0xFE8
   579                           status	equ	0xFD8
   580                           
   581 ;; *************** function _Hi *****************
   582 ;; Defined at:
   583 ;;		line 166 in file "mainproject.c"
   584 ;; Parameters:    Size  Location     Type
   585 ;;		None
   586 ;; Auto vars:     Size  Location     Type
   587 ;;		None
   588 ;; Return value:  Size  Location     Type
   589 ;;                  1    wreg      void 
   590 ;; Registers used:
   591 ;;		wreg, status,2, status,0, cstack
   592 ;; Tracked objects:
   593 ;;		On entry : 0/0
   594 ;;		On exit  : 0/0
   595 ;;		Unchanged: 0/0
   596 ;; Data sizes:     COMRAM   BANK0   BANK1   BANK2   BANK3   BANK4   BANK5
   597 ;;      Params:         0       0       0       0       0       0       0
   598 ;;      Locals:         0       0       0       0       0       0       0
   599 ;;      Temps:         18       0       0       0       0       0       0
   600 ;;      Totals:        18       0       0       0       0       0       0
   601 ;;Total ram usage:       18 bytes
   602 ;; Hardware stack levels used:    1
   603 ;; Hardware stack levels required when called:    2
   604 ;; This function calls:
   605 ;;		_rgbstart
   606 ;; This function is called by:
   607 ;;		Interrupt level 2
   608 ;; This function uses a non-reentrant model
   609 ;;
   610                           
   611                           	psect	intcode
   612  000008                     __pintcode:
   613                           	opt stack 0
   614  000008                     _Hi:
   615                           	opt stack 26
   616                           
   617                           ;incstack = 0
   618  000008  8234               	bsf	btemp,1,c	;set compiler interrupt flag (level 2)
   619  00000A  ED08  F001         	call	int_func,f	;refresh shadow registers
   620                           intcon	equ	0xFF2
   621                           intcon2	equ	0xFF1
   622                           postinc0	equ	0xFEE
   623                           wreg	equ	0xFE8
   624                           status	equ	0xFD8
   625                           
   626                           	psect	intcode_body
   627  000210                     __pintcode_body:
   628                           	opt stack 26
   629  000210                     int_func:
   630                           	opt stack 26
   631  000210  0006               	pop		; remove dummy address from shadow register refresh
   632  000212  CFFA F00B          	movff	pclath,??_Hi
   633  000216  CFFB F00C          	movff	pclatu,??_Hi+1
   634  00021A  CFE9 F00D          	movff	fsr0l,??_Hi+2
   635  00021E  CFEA F00E          	movff	fsr0h,??_Hi+3
   636  000222  CFE1 F00F          	movff	fsr1l,??_Hi+4
   637  000226  CFE2 F010          	movff	fsr1h,??_Hi+5
   638  00022A  CFD9 F011          	movff	fsr2l,??_Hi+6
   639  00022E  CFDA F012          	movff	fsr2h,??_Hi+7
   640  000232  CFF3 F013          	movff	prodl,??_Hi+8
   641  000236  CFF4 F014          	movff	prodh,??_Hi+9
   642  00023A  CFF6 F015          	movff	tblptrl,??_Hi+10
   643  00023E  CFF7 F016          	movff	tblptrh,??_Hi+11
   644  000242  CFF8 F017          	movff	tblptru,??_Hi+12
   645  000246  CFF5 F018          	movff	tablat,??_Hi+13
   646  00024A  C034  F019         	movff	btemp,??_Hi+14
   647  00024E  C035  F01A         	movff	btemp+1,??_Hi+15
   648  000252  C036  F01B         	movff	btemp+2,??_Hi+16
   649  000256  C037  F01C         	movff	btemp+3,??_Hi+17
   650                           
   651                           ;mainproject.c: 168: if(INTCONbits.INT0IF == 1) {
   652  00025A  A2F2               	btfss	intcon,1,c	;volatile
   653  00025C  D006               	goto	i2l103
   654                           
   655                           ;mainproject.c: 169: PORTBbits.RB0=0;
   656  00025E  9081               	bcf	3969,0,c	;volatile
   657                           
   658                           ;mainproject.c: 170: INTCONbits.INT0IF = 0;
   659  000260  92F2               	bcf	intcon,1,c	;volatile
   660                           
   661                           ;mainproject.c: 171: rgbstart();
   662  000262  EC09  F000         	call	_rgbstart	;wreg free
   663                           
   664                           ;mainproject.c: 172: rgbstart();
   665  000266  EC09  F000         	call	_rgbstart	;wreg free
   666  00026A                     i2l103:
   667  00026A  C01C  F037         	movff	??_Hi+17,btemp+3
   668  00026E  C01B  F036         	movff	??_Hi+16,btemp+2
   669  000272  C01A  F035         	movff	??_Hi+15,btemp+1
   670  000276  C019  F034         	movff	??_Hi+14,btemp
   671  00027A  C018  FFF5         	movff	??_Hi+13,tablat
   672  00027E  C017  FFF8         	movff	??_Hi+12,tblptru
   673  000282  C016  FFF7         	movff	??_Hi+11,tblptrh
   674  000286  C015  FFF6         	movff	??_Hi+10,tblptrl
   675  00028A  C014  FFF4         	movff	??_Hi+9,prodh
   676  00028E  C013  FFF3         	movff	??_Hi+8,prodl
   677  000292  C012  FFDA         	movff	??_Hi+7,fsr2h
   678  000296  C011  FFD9         	movff	??_Hi+6,fsr2l
   679  00029A  C010  FFE2         	movff	??_Hi+5,fsr1h
   680  00029E  C00F  FFE1         	movff	??_Hi+4,fsr1l
   681  0002A2  C00E  FFEA         	movff	??_Hi+3,fsr0h
   682  0002A6  C00D  FFE9         	movff	??_Hi+2,fsr0l
   683  0002AA  C00C  FFFB         	movff	??_Hi+1,pclatu
   684  0002AE  C00B  FFFA         	movff	??_Hi,pclath
   685  0002B2  9234               	bcf	btemp,1,c	;clear compiler interrupt flag (level 2)
   686  0002B4  0011               	retfie		f
   687  0002B6                     __end_of_Hi:
   688                           	opt stack 0
   689                           pclatu	equ	0xFFB
   690                           pclath	equ	0xFFA
   691                           tblptru	equ	0xFF8
   692                           tblptrh	equ	0xFF7
   693                           tblptrl	equ	0xFF6
   694                           tablat	equ	0xFF5
   695                           prodh	equ	0xFF4
   696                           prodl	equ	0xFF3
   697                           intcon	equ	0xFF2
   698                           intcon2	equ	0xFF1
   699                           postinc0	equ	0xFEE
   700                           fsr0h	equ	0xFEA
   701                           fsr0l	equ	0xFE9
   702                           wreg	equ	0xFE8
   703                           fsr1h	equ	0xFE2
   704                           fsr1l	equ	0xFE1
   705                           fsr2h	equ	0xFDA
   706                           fsr2l	equ	0xFD9
   707                           status	equ	0xFD8
   708                           
   709 ;; *************** function _rgbstart *****************
   710 ;; Defined at:
   711 ;;		line 91 in file "mainproject.c"
   712 ;; Parameters:    Size  Location     Type
   713 ;;		None
   714 ;; Auto vars:     Size  Location     Type
   715 ;;		None
   716 ;; Return value:  Size  Location     Type
   717 ;;                  1    wreg      void 
   718 ;; Registers used:
   719 ;;		wreg, status,2, status,0, cstack
   720 ;; Tracked objects:
   721 ;;		On entry : 0/0
   722 ;;		On exit  : 0/0
   723 ;;		Unchanged: 0/0
   724 ;; Data sizes:     COMRAM   BANK0   BANK1   BANK2   BANK3   BANK4   BANK5
   725 ;;      Params:         0       0       0       0       0       0       0
   726 ;;      Locals:         0       0       0       0       0       0       0
   727 ;;      Temps:          2       0       0       0       0       0       0
   728 ;;      Totals:         2       0       0       0       0       0       0
   729 ;;Total ram usage:        2 bytes
   730 ;; Hardware stack levels used:    1
   731 ;; Hardware stack levels required when called:    1
   732 ;; This function calls:
   733 ;;		_rgbshow
   734 ;; This function is called by:
   735 ;;		_Hi
   736 ;; This function uses a non-reentrant model
   737 ;;
   738                           
   739                           	psect	text5
   740  000012                     __ptext5:
   741                           	opt stack 0
   742  000012                     _rgbstart:
   743                           	opt stack 26
   744                           
   745                           ;mainproject.c: 94: while( red!= 130 ){
   746                           
   747                           ;incstack = 0
   748  000012  D017               	goto	i2l59
   749  000014                     
   750                           ;mainproject.c: 95: red++;
   751  000014  4A32               	infsnz	_red,f,c
   752  000016  2A33               	incf	_red+1,f,c
   753                           
   754                           ;mainproject.c: 96: rgbshow(red,green,blue);
   755  000018  C032  F001         	movff	_red,rgbshow@rval
   756  00001C  C033  F002         	movff	_red+1,rgbshow@rval+1
   757  000020  C030  F003         	movff	_green,rgbshow@gval
   758  000024  C031  F004         	movff	_green+1,rgbshow@gval+1
   759  000028  C02E  F005         	movff	_blue,rgbshow@bval
   760  00002C  C02F  F006         	movff	_blue+1,rgbshow@bval+1
   761  000030  EC5B  F001         	call	_rgbshow	;wreg free
   762                           
   763                           ;mainproject.c: 97: _delay((unsigned long)((1)*(8000000/4000.0)));
   764  000034  0E03               	movlw	3
   765  000036  6E09               	movwf	??_rgbstart& (0+255),c
   766  000038  0E98               	movlw	152
   767  00003A                     i2u47_47:
   768  00003A  2EE8               	decfsz	wreg,f,c
   769  00003C  D7FE               	bra	i2u47_47
   770  00003E  2E09               	decfsz	??_rgbstart& (0+255),f,c
   771  000040  D7FC               	bra	i2u47_47
   772  000042                     i2l59:
   773  000042  0E82               	movlw	130
   774  000044  1832               	xorwf	_red,w,c
   775  000046  1033               	iorwf	_red+1,w,c
   776  000048  A4D8               	btfss	status,2,c
   777  00004A  D7E4               	goto	i2l60
   778                           
   779                           ;mainproject.c: 98: }
   780                           ;mainproject.c: 99: LATBbits.LATB4=1;
   781  00004C  888A               	bsf	3978,4,c	;volatile
   782                           
   783                           ;mainproject.c: 100: _delay((unsigned long)((10)*(8000000/4000.0)));
   784  00004E  0E1A               	movlw	26
   785  000050  6E09               	movwf	??_rgbstart& (0+255),c
   786  000052  0EF8               	movlw	248
   787  000054                     i2u48_47:
   788  000054  2EE8               	decfsz	wreg,f,c
   789  000056  D7FE               	bra	i2u48_47
   790  000058  2E09               	decfsz	??_rgbstart& (0+255),f,c
   791  00005A  D7FC               	bra	i2u48_47
   792  00005C  D000               	nop2	
   793                           
   794                           ;mainproject.c: 101: LATBbits.LATB4=0;
   795  00005E  988A               	bcf	3978,4,c	;volatile
   796                           
   797                           ;mainproject.c: 102: _delay((unsigned long)((100)*(8000000/4000.0)));
   798  000060  0E02               	movlw	2
   799  000062  6E0A               	movwf	(??_rgbstart+1)& (0+255),c
   800  000064  0E04               	movlw	4
   801  000066  6E09               	movwf	??_rgbstart& (0+255),c
   802  000068  0EBA               	movlw	186
   803  00006A                     i2u49_47:
   804  00006A  2EE8               	decfsz	wreg,f,c
   805  00006C  D7FE               	bra	i2u49_47
   806  00006E  2E09               	decfsz	??_rgbstart& (0+255),f,c
   807  000070  D7FC               	bra	i2u49_47
   808  000072  2E0A               	decfsz	(??_rgbstart+1)& (0+255),f,c
   809  000074  D7FA               	bra	i2u49_47
   810  000076  D000               	nop2	
   811                           
   812                           ;mainproject.c: 104: while( green!= 130 ){
   813  000078  D017               	goto	i2l62
   814  00007A                     
   815                           ;mainproject.c: 105: green++;
   816  00007A  4A30               	infsnz	_green,f,c
   817  00007C  2A31               	incf	_green+1,f,c
   818                           
   819                           ;mainproject.c: 106: rgbshow(red,green,blue);
   820  00007E  C032  F001         	movff	_red,rgbshow@rval
   821  000082  C033  F002         	movff	_red+1,rgbshow@rval+1
   822  000086  C030  F003         	movff	_green,rgbshow@gval
   823  00008A  C031  F004         	movff	_green+1,rgbshow@gval+1
   824  00008E  C02E  F005         	movff	_blue,rgbshow@bval
   825  000092  C02F  F006         	movff	_blue+1,rgbshow@bval+1
   826  000096  EC5B  F001         	call	_rgbshow	;wreg free
   827                           
   828                           ;mainproject.c: 107: _delay((unsigned long)((1)*(8000000/4000.0)));
   829  00009A  0E03               	movlw	3
   830  00009C  6E09               	movwf	??_rgbstart& (0+255),c
   831  00009E  0E98               	movlw	152
   832  0000A0                     i2u50_47:
   833  0000A0  2EE8               	decfsz	wreg,f,c
   834  0000A2  D7FE               	bra	i2u50_47
   835  0000A4  2E09               	decfsz	??_rgbstart& (0+255),f,c
   836  0000A6  D7FC               	bra	i2u50_47
   837  0000A8                     i2l62:
   838  0000A8  0E82               	movlw	130
   839  0000AA  1830               	xorwf	_green,w,c
   840  0000AC  1031               	iorwf	_green+1,w,c
   841  0000AE  B4D8               	btfsc	status,2,c
   842  0000B0  D019               	goto	i2l65
   843  0000B2  D7E3               	goto	i2l63
   844  0000B4                     
   845                           ;mainproject.c: 111: red--;
   846  0000B4  0632               	decf	_red,f,c
   847  0000B6  A0D8               	btfss	status,0,c
   848  0000B8  0633               	decf	_red+1,f,c
   849                           
   850                           ;mainproject.c: 112: rgbshow(red,green,blue);
   851  0000BA  C032  F001         	movff	_red,rgbshow@rval
   852  0000BE  C033  F002         	movff	_red+1,rgbshow@rval+1
   853  0000C2  C030  F003         	movff	_green,rgbshow@gval
   854  0000C6  C031  F004         	movff	_green+1,rgbshow@gval+1
   855  0000CA  C02E  F005         	movff	_blue,rgbshow@bval
   856  0000CE  C02F  F006         	movff	_blue+1,rgbshow@bval+1
   857  0000D2  EC5B  F001         	call	_rgbshow	;wreg free
   858                           
   859                           ;mainproject.c: 113: _delay((unsigned long)((1)*(8000000/4000.0)));
   860  0000D6  0E03               	movlw	3
   861  0000D8  6E09               	movwf	??_rgbstart& (0+255),c
   862  0000DA  0E98               	movlw	152
   863  0000DC                     i2u51_47:
   864  0000DC  2EE8               	decfsz	wreg,f,c
   865  0000DE  D7FE               	bra	i2u51_47
   866  0000E0  2E09               	decfsz	??_rgbstart& (0+255),f,c
   867  0000E2  D7FC               	bra	i2u51_47
   868  0000E4                     i2l65:
   869  0000E4  5032               	movf	_red,w,c
   870  0000E6  1033               	iorwf	_red+1,w,c
   871  0000E8  B4D8               	btfsc	status,2,c
   872  0000EA  D018               	goto	i2l68
   873  0000EC  D7E3               	goto	i2l66
   874  0000EE                     
   875                           ;mainproject.c: 117: blue++;
   876  0000EE  4A2E               	infsnz	_blue,f,c
   877  0000F0  2A2F               	incf	_blue+1,f,c
   878                           
   879                           ;mainproject.c: 118: rgbshow(red,green,blue);
   880  0000F2  C032  F001         	movff	_red,rgbshow@rval
   881  0000F6  C033  F002         	movff	_red+1,rgbshow@rval+1
   882  0000FA  C030  F003         	movff	_green,rgbshow@gval
   883  0000FE  C031  F004         	movff	_green+1,rgbshow@gval+1
   884  000102  C02E  F005         	movff	_blue,rgbshow@bval
   885  000106  C02F  F006         	movff	_blue+1,rgbshow@bval+1
   886  00010A  EC5B  F001         	call	_rgbshow	;wreg free
   887                           
   888                           ;mainproject.c: 119: _delay((unsigned long)((1)*(8000000/4000.0)));
   889  00010E  0E03               	movlw	3
   890  000110  6E09               	movwf	??_rgbstart& (0+255),c
   891  000112  0E98               	movlw	152
   892  000114                     i2u52_47:
   893  000114  2EE8               	decfsz	wreg,f,c
   894  000116  D7FE               	bra	i2u52_47
   895  000118  2E09               	decfsz	??_rgbstart& (0+255),f,c
   896  00011A  D7FC               	bra	i2u52_47
   897  00011C                     i2l68:
   898  00011C  0E82               	movlw	130
   899  00011E  182E               	xorwf	_blue,w,c
   900  000120  102F               	iorwf	_blue+1,w,c
   901  000122  B4D8               	btfsc	status,2,c
   902  000124  D018               	goto	i2l71
   903  000126  D7E3               	goto	i2l69
   904  000128                     
   905                           ;mainproject.c: 123: red++;
   906  000128  4A32               	infsnz	_red,f,c
   907  00012A  2A33               	incf	_red+1,f,c
   908                           
   909                           ;mainproject.c: 124: rgbshow(red,green,blue);
   910  00012C  C032  F001         	movff	_red,rgbshow@rval
   911  000130  C033  F002         	movff	_red+1,rgbshow@rval+1
   912  000134  C030  F003         	movff	_green,rgbshow@gval
   913  000138  C031  F004         	movff	_green+1,rgbshow@gval+1
   914  00013C  C02E  F005         	movff	_blue,rgbshow@bval
   915  000140  C02F  F006         	movff	_blue+1,rgbshow@bval+1
   916  000144  EC5B  F001         	call	_rgbshow	;wreg free
   917                           
   918                           ;mainproject.c: 125: _delay((unsigned long)((1)*(8000000/4000.0)));
   919  000148  0E03               	movlw	3
   920  00014A  6E09               	movwf	??_rgbstart& (0+255),c
   921  00014C  0E98               	movlw	152
   922  00014E                     i2u53_47:
   923  00014E  2EE8               	decfsz	wreg,f,c
   924  000150  D7FE               	bra	i2u53_47
   925  000152  2E09               	decfsz	??_rgbstart& (0+255),f,c
   926  000154  D7FC               	bra	i2u53_47
   927  000156                     i2l71:
   928  000156  0E82               	movlw	130
   929  000158  1832               	xorwf	_red,w,c
   930  00015A  1033               	iorwf	_red+1,w,c
   931  00015C  B4D8               	btfsc	status,2,c
   932  00015E  D019               	goto	i2l74
   933  000160  D7E3               	goto	i2l72
   934  000162                     
   935                           ;mainproject.c: 129: green--;
   936  000162  0630               	decf	_green,f,c
   937  000164  A0D8               	btfss	status,0,c
   938  000166  0631               	decf	_green+1,f,c
   939                           
   940                           ;mainproject.c: 130: rgbshow(red,green,blue);
   941  000168  C032  F001         	movff	_red,rgbshow@rval
   942  00016C  C033  F002         	movff	_red+1,rgbshow@rval+1
   943  000170  C030  F003         	movff	_green,rgbshow@gval
   944  000174  C031  F004         	movff	_green+1,rgbshow@gval+1
   945  000178  C02E  F005         	movff	_blue,rgbshow@bval
   946  00017C  C02F  F006         	movff	_blue+1,rgbshow@bval+1
   947  000180  EC5B  F001         	call	_rgbshow	;wreg free
   948                           
   949                           ;mainproject.c: 131: _delay((unsigned long)((1)*(8000000/4000.0)));
   950  000184  0E03               	movlw	3
   951  000186  6E09               	movwf	??_rgbstart& (0+255),c
   952  000188  0E98               	movlw	152
   953  00018A                     i2u54_47:
   954  00018A  2EE8               	decfsz	wreg,f,c
   955  00018C  D7FE               	bra	i2u54_47
   956  00018E  2E09               	decfsz	??_rgbstart& (0+255),f,c
   957  000190  D7FC               	bra	i2u54_47
   958  000192                     i2l74:
   959  000192  5030               	movf	_green,w,c
   960  000194  1031               	iorwf	_green+1,w,c
   961  000196  B4D8               	btfsc	status,2,c
   962  000198  D019               	goto	i2l77
   963  00019A  D7E3               	goto	i2l75
   964  00019C                     
   965                           ;mainproject.c: 135: red--;
   966  00019C  0632               	decf	_red,f,c
   967  00019E  A0D8               	btfss	status,0,c
   968  0001A0  0633               	decf	_red+1,f,c
   969                           
   970                           ;mainproject.c: 136: rgbshow(red,green,blue);
   971  0001A2  C032  F001         	movff	_red,rgbshow@rval
   972  0001A6  C033  F002         	movff	_red+1,rgbshow@rval+1
   973  0001AA  C030  F003         	movff	_green,rgbshow@gval
   974  0001AE  C031  F004         	movff	_green+1,rgbshow@gval+1
   975  0001B2  C02E  F005         	movff	_blue,rgbshow@bval
   976  0001B6  C02F  F006         	movff	_blue+1,rgbshow@bval+1
   977  0001BA  EC5B  F001         	call	_rgbshow	;wreg free
   978                           
   979                           ;mainproject.c: 137: _delay((unsigned long)((1)*(8000000/4000.0)));
   980  0001BE  0E03               	movlw	3
   981  0001C0  6E09               	movwf	??_rgbstart& (0+255),c
   982  0001C2  0E98               	movlw	152
   983  0001C4                     i2u55_47:
   984  0001C4  2EE8               	decfsz	wreg,f,c
   985  0001C6  D7FE               	bra	i2u55_47
   986  0001C8  2E09               	decfsz	??_rgbstart& (0+255),f,c
   987  0001CA  D7FC               	bra	i2u55_47
   988  0001CC                     i2l77:
   989  0001CC  5032               	movf	_red,w,c
   990  0001CE  1033               	iorwf	_red+1,w,c
   991  0001D0  B4D8               	btfsc	status,2,c
   992  0001D2  D019               	goto	i2l80
   993  0001D4  D7E3               	goto	i2l78
   994  0001D6                     
   995                           ;mainproject.c: 141: blue--;
   996  0001D6  062E               	decf	_blue,f,c
   997  0001D8  A0D8               	btfss	status,0,c
   998  0001DA  062F               	decf	_blue+1,f,c
   999                           
  1000                           ;mainproject.c: 142: rgbshow(red,green,blue);
  1001  0001DC  C032  F001         	movff	_red,rgbshow@rval
  1002  0001E0  C033  F002         	movff	_red+1,rgbshow@rval+1
  1003  0001E4  C030  F003         	movff	_green,rgbshow@gval
  1004  0001E8  C031  F004         	movff	_green+1,rgbshow@gval+1
  1005  0001EC  C02E  F005         	movff	_blue,rgbshow@bval
  1006  0001F0  C02F  F006         	movff	_blue+1,rgbshow@bval+1
  1007  0001F4  EC5B  F001         	call	_rgbshow	;wreg free
  1008                           
  1009                           ;mainproject.c: 143: _delay((unsigned long)((1)*(8000000/4000.0)));
  1010  0001F8  0E03               	movlw	3
  1011  0001FA  6E09               	movwf	??_rgbstart& (0+255),c
  1012  0001FC  0E98               	movlw	152
  1013  0001FE                     i2u56_47:
  1014  0001FE  2EE8               	decfsz	wreg,f,c
  1015  000200  D7FE               	bra	i2u56_47
  1016  000202  2E09               	decfsz	??_rgbstart& (0+255),f,c
  1017  000204  D7FC               	bra	i2u56_47
  1018  000206                     i2l80:
  1019  000206  502E               	movf	_blue,w,c
  1020  000208  102F               	iorwf	_blue+1,w,c
  1021  00020A  B4D8               	btfsc	status,2,c
  1022  00020C  0012               	return	
  1023  00020E  D7E3               	goto	i2l81
  1024  000210                     __end_of_rgbstart:
  1025                           	opt stack 0
  1026                           pclatu	equ	0xFFB
  1027                           pclath	equ	0xFFA
  1028                           tblptru	equ	0xFF8
  1029                           tblptrh	equ	0xFF7
  1030                           tblptrl	equ	0xFF6
  1031                           tablat	equ	0xFF5
  1032                           prodh	equ	0xFF4
  1033                           prodl	equ	0xFF3
  1034                           intcon	equ	0xFF2
  1035                           intcon2	equ	0xFF1
  1036                           postinc0	equ	0xFEE
  1037                           fsr0h	equ	0xFEA
  1038                           fsr0l	equ	0xFE9
  1039                           wreg	equ	0xFE8
  1040                           fsr1h	equ	0xFE2
  1041                           fsr1l	equ	0xFE1
  1042                           fsr2h	equ	0xFDA
  1043                           fsr2l	equ	0xFD9
  1044                           status	equ	0xFD8
  1045                           
  1046 ;; *************** function _rgbshow *****************
  1047 ;; Defined at:
  1048 ;;		line 68 in file "mainproject.c"
  1049 ;; Parameters:    Size  Location     Type
  1050 ;;  rval            2    0[COMRAM] int 
  1051 ;;  gval            2    2[COMRAM] int 
  1052 ;;  bval            2    4[COMRAM] int 
  1053 ;; Auto vars:     Size  Location     Type
  1054 ;;  i               2    6[COMRAM] int 
  1055 ;; Return value:  Size  Location     Type
  1056 ;;                  1    wreg      void 
  1057 ;; Registers used:
  1058 ;;		wreg, status,2, status,0
  1059 ;; Tracked objects:
  1060 ;;		On entry : 0/0
  1061 ;;		On exit  : 0/0
  1062 ;;		Unchanged: 0/0
  1063 ;; Data sizes:     COMRAM   BANK0   BANK1   BANK2   BANK3   BANK4   BANK5
  1064 ;;      Params:         6       0       0       0       0       0       0
  1065 ;;      Locals:         2       0       0       0       0       0       0
  1066 ;;      Temps:          0       0       0       0       0       0       0
  1067 ;;      Totals:         8       0       0       0       0       0       0
  1068 ;;Total ram usage:        8 bytes
  1069 ;; Hardware stack levels used:    1
  1070 ;; This function calls:
  1071 ;;		Nothing
  1072 ;; This function is called by:
  1073 ;;		_rgbstart
  1074 ;; This function uses a non-reentrant model
  1075 ;;
  1076                           
  1077                           	psect	text6
  1078  0002B6                     __ptext6:
  1079                           	opt stack 0
  1080  0002B6                     _rgbshow:
  1081                           	opt stack 26
  1082                           
  1083                           ;mainproject.c: 69: if(flag==0){
  1084                           
  1085                           ;incstack = 0
  1086  0002B6  5028               	movf	_flag,w,c
  1087  0002B8  1029               	iorwf	_flag+1,w,c
  1088  0002BA  A4D8               	btfss	status,2,c
  1089  0002BC  0012               	return	
  1090                           
  1091                           ;mainproject.c: 70: LATCbits.LATC0=1;
  1092  0002BE  808B               	bsf	3979,0,c	;volatile
  1093                           
  1094                           ;mainproject.c: 71: LATCbits.LATC1=1;
  1095  0002C0  828B               	bsf	3979,1,c	;volatile
  1096                           
  1097                           ;mainproject.c: 72: LATCbits.LATC2=1;
  1098  0002C2  848B               	bsf	3979,2,c	;volatile
  1099                           
  1100                           ;mainproject.c: 73: LATCbits.LATC3=1;
  1101  0002C4  868B               	bsf	3979,3,c	;volatile
  1102                           
  1103                           ;mainproject.c: 74: LATDbits.LATD0=1;
  1104  0002C6  808C               	bsf	3980,0,c	;volatile
  1105                           
  1106                           ;mainproject.c: 75: LATDbits.LATD1=1;
  1107  0002C8  828C               	bsf	3980,1,c	;volatile
  1108                           
  1109                           ;mainproject.c: 76: LATDbits.LATD2=1;
  1110  0002CA  848C               	bsf	3980,2,c	;volatile
  1111                           
  1112                           ;mainproject.c: 77: LATDbits.LATD3=1;
  1113  0002CC  868C               	bsf	3980,3,c	;volatile
  1114                           
  1115                           ;mainproject.c: 78: LATCbits.LATC4=1;
  1116  0002CE  888B               	bsf	3979,4,c	;volatile
  1117                           
  1118                           ;mainproject.c: 79: LATCbits.LATC5=1;
  1119  0002D0  8A8B               	bsf	3979,5,c	;volatile
  1120                           
  1121                           ;mainproject.c: 80: LATCbits.LATC6=1;
  1122  0002D2  8C8B               	bsf	3979,6,c	;volatile
  1123                           
  1124                           ;mainproject.c: 81: LATCbits.LATC7=1;
  1125  0002D4  8E8B               	bsf	3979,7,c	;volatile
  1126                           
  1127                           ;mainproject.c: 83: for(int i=0;i<130;i++){
  1128  0002D6  0E00               	movlw	0
  1129  0002D8  6E08               	movwf	rgbshow@i+1,c
  1130  0002DA  0E00               	movlw	0
  1131  0002DC  6E07               	movwf	rgbshow@i,c
  1132  0002DE                     i2l921:
  1133  0002DE  BE08               	btfsc	rgbshow@i+1,7,c
  1134  0002E0  D006               	goto	i2l51
  1135  0002E2  5008               	movf	rgbshow@i+1,w,c
  1136  0002E4  E11F               	bnz	i2l56
  1137  0002E6  0E82               	movlw	130
  1138  0002E8  5C07               	subwf	rgbshow@i,w,c
  1139  0002EA  B0D8               	btfsc	status,0,c
  1140  0002EC  0012               	return	
  1141  0002EE                     i2l51:
  1142                           
  1143                           ;mainproject.c: 84: if((rval--)==0) LATCbits.LATC0=0;
  1144  0002EE  0601               	decf	rgbshow@rval,f,c
  1145  0002F0  A0D8               	btfss	status,0,c
  1146  0002F2  0602               	decf	rgbshow@rval+1,f,c
  1147  0002F4  2801               	incf	rgbshow@rval,w,c
  1148  0002F6  E103               	bnz	i2l929
  1149  0002F8  2802               	incf	rgbshow@rval+1,w,c
  1150  0002FA  B4D8               	btfsc	status,2,c
  1151  0002FC  908B               	bcf	3979,0,c	;volatile
  1152  0002FE                     i2l929:
  1153                           
  1154                           ;mainproject.c: 85: if((gval--)==0) LATCbits.LATC1=0;
  1155  0002FE  0603               	decf	rgbshow@gval,f,c
  1156  000300  A0D8               	btfss	status,0,c
  1157  000302  0604               	decf	rgbshow@gval+1,f,c
  1158  000304  2803               	incf	rgbshow@gval,w,c
  1159  000306  E103               	bnz	i2l933
  1160  000308  2804               	incf	rgbshow@gval+1,w,c
  1161  00030A  B4D8               	btfsc	status,2,c
  1162  00030C  928B               	bcf	3979,1,c	;volatile
  1163  00030E                     i2l933:
  1164                           
  1165                           ;mainproject.c: 86: if((bval--)==0) LATCbits.LATC2=0;
  1166  00030E  0605               	decf	rgbshow@bval,f,c
  1167  000310  A0D8               	btfss	status,0,c
  1168  000312  0606               	decf	rgbshow@bval+1,f,c
  1169  000314  2805               	incf	rgbshow@bval,w,c
  1170  000316  E103               	bnz	i2l937
  1171  000318  2806               	incf	rgbshow@bval+1,w,c
  1172  00031A  B4D8               	btfsc	status,2,c
  1173  00031C  948B               	bcf	3979,2,c	;volatile
  1174  00031E                     i2l937:
  1175  00031E  4A07               	infsnz	rgbshow@i,f,c
  1176  000320  2A08               	incf	rgbshow@i+1,f,c
  1177  000322  D7DD               	goto	i2l921
  1178  000324                     i2l56:
  1179  000324  0012               	return		;funcret
  1180  000326                     __end_of_rgbshow:
  1181                           	opt stack 0
  1182  0000                     pclatu	equ	0xFFB
  1183                           pclath	equ	0xFFA
  1184                           tblptru	equ	0xFF8
  1185                           tblptrh	equ	0xFF7
  1186                           tblptrl	equ	0xFF6
  1187                           tablat	equ	0xFF5
  1188                           prodh	equ	0xFF4
  1189                           prodl	equ	0xFF3
  1190                           intcon	equ	0xFF2
  1191                           intcon2	equ	0xFF1
  1192                           postinc0	equ	0xFEE
  1193                           fsr0h	equ	0xFEA
  1194                           fsr0l	equ	0xFE9
  1195                           wreg	equ	0xFE8
  1196                           fsr1h	equ	0xFE2
  1197                           fsr1l	equ	0xFE1
  1198                           fsr2h	equ	0xFDA
  1199                           fsr2l	equ	0xFD9
  1200                           status	equ	0xFD8
  1201                           pclatu	equ	0xFFB
  1202                           pclath	equ	0xFFA
  1203                           tblptru	equ	0xFF8
  1204                           tblptrh	equ	0xFF7
  1205                           tblptrl	equ	0xFF6
  1206                           tablat	equ	0xFF5
  1207                           prodh	equ	0xFF4
  1208                           prodl	equ	0xFF3
  1209                           intcon	equ	0xFF2
  1210                           intcon2	equ	0xFF1
  1211                           postinc0	equ	0xFEE
  1212                           fsr0h	equ	0xFEA
  1213                           fsr0l	equ	0xFE9
  1214                           wreg	equ	0xFE8
  1215                           fsr1h	equ	0xFE2
  1216                           fsr1l	equ	0xFE1
  1217                           fsr2h	equ	0xFDA
  1218                           fsr2l	equ	0xFD9
  1219                           status	equ	0xFD8
  1220                           
  1221                           	psect	rparam
  1222  0000                     pclatu	equ	0xFFB
  1223                           pclath	equ	0xFFA
  1224                           tblptru	equ	0xFF8
  1225                           tblptrh	equ	0xFF7
  1226                           tblptrl	equ	0xFF6
  1227                           tablat	equ	0xFF5
  1228                           prodh	equ	0xFF4
  1229                           prodl	equ	0xFF3
  1230                           intcon	equ	0xFF2
  1231                           intcon2	equ	0xFF1
  1232                           postinc0	equ	0xFEE
  1233                           fsr0h	equ	0xFEA
  1234                           fsr0l	equ	0xFE9
  1235                           wreg	equ	0xFE8
  1236                           fsr1h	equ	0xFE2
  1237                           fsr1l	equ	0xFE1
  1238                           fsr2h	equ	0xFDA
  1239                           fsr2l	equ	0xFD9
  1240                           status	equ	0xFD8
  1241                           
  1242                           	psect	temp
  1243  000034                     btemp:
  1244                           	opt stack 0
  1245  000034                     	ds	1
  1246  0000                     int$flags	set	btemp
  1247  0000                     wtemp6	set	btemp+1
  1248                           pclatu	equ	0xFFB
  1249                           pclath	equ	0xFFA
  1250                           tblptru	equ	0xFF8
  1251                           tblptrh	equ	0xFF7
  1252                           tblptrl	equ	0xFF6
  1253                           tablat	equ	0xFF5
  1254                           prodh	equ	0xFF4
  1255                           prodl	equ	0xFF3
  1256                           intcon	equ	0xFF2
  1257                           intcon2	equ	0xFF1
  1258                           postinc0	equ	0xFEE
  1259                           fsr0h	equ	0xFEA
  1260                           fsr0l	equ	0xFE9
  1261                           wreg	equ	0xFE8
  1262                           fsr1h	equ	0xFE2
  1263                           fsr1l	equ	0xFE1
  1264                           fsr2h	equ	0xFDA
  1265                           fsr2l	equ	0xFD9
  1266                           status	equ	0xFD8


Data Sizes:
    Strings     0
    Constant    0
    Data        0
    BSS         15
    Persistent  0
    Stack       0

Auto Spaces:
    Space          Size  Autos    Used
    COMRAM          126     36      51
    BANK0           128      0       0
    BANK1           256      0       0
    BANK2           256      0       0
    BANK3           256      0       0
    BANK4           256      0       0
    BANK5           239      0       0

Pointer List with Targets:

    None.

Critical Paths under _main in COMRAM

    _wstart->_wshow

Critical Paths under _Hi in COMRAM

    _Hi->_rgbstart
    _rgbstart->_rgbshow

Critical Paths under _main in BANK0

    None.

Critical Paths under _Hi in BANK0

    None.

Critical Paths under _main in BANK1

    None.

Critical Paths under _Hi in BANK1

    None.

Critical Paths under _main in BANK2

    None.

Critical Paths under _Hi in BANK2

    None.

Critical Paths under _main in BANK3

    None.

Critical Paths under _Hi in BANK3

    None.

Critical Paths under _main in BANK4

    None.

Critical Paths under _Hi in BANK4

    None.

Critical Paths under _main in BANK5

    None.

Critical Paths under _Hi in BANK5

    None.

Call Graph Tables:

 ---------------------------------------------------------------------------------
 (Depth) Function   	        Calls       Base Space   Used Autos Params    Refs
 ---------------------------------------------------------------------------------
 (0) _main                                                 4     4      0     269
                                             32 COMRAM     4     4      0
                               _init
                             _wstart
 ---------------------------------------------------------------------------------
 (1) _wstart                                               0     0      0     220
                              _wshow
 ---------------------------------------------------------------------------------
 (2) _wshow                                                4     2      2     220
                                             28 COMRAM     4     2      2
 ---------------------------------------------------------------------------------
 (1) _init                                                 0     0      0       0
 ---------------------------------------------------------------------------------
 Estimated maximum stack depth 2
 ---------------------------------------------------------------------------------
 (Depth) Function   	        Calls       Base Space   Used Autos Params    Refs
 ---------------------------------------------------------------------------------
 (3) _Hi                                                  18    18      0    1936
                                             10 COMRAM    18    18      0
                           _rgbstart
 ---------------------------------------------------------------------------------
 (4) _rgbstart                                             2     2      0    1936
                                              8 COMRAM     2     2      0
                            _rgbshow
 ---------------------------------------------------------------------------------
 (5) _rgbshow                                              8     2      6    1936
                                              0 COMRAM     8     2      6
 ---------------------------------------------------------------------------------
 Estimated maximum stack depth 5
 ---------------------------------------------------------------------------------

 Call Graph Graphs:

 _main (ROOT)
   _init
   _wstart
     _wshow

 _Hi (ROOT)
   _rgbstart
     _rgbshow

 Address spaces:
Name               Size   Autos  Total    Cost      Usage
BIGRAM             5EE      0       0      16        0.0%
EEDATA             100      0       0       0        0.0%
BITBANK4           100      0       0      11        0.0%
BANK4              100      0       0      12        0.0%
BITBANK3           100      0       0       9        0.0%
BANK3              100      0       0      10        0.0%
BITBANK2           100      0       0       7        0.0%
BANK2              100      0       0       8        0.0%
BITBANK1           100      0       0       5        0.0%
BANK1              100      0       0       6        0.0%
BITBANK5            EF      0       0      15        0.0%
BANK5               EF      0       0      13        0.0%
BITBANK0            80      0       0       3        0.0%
BANK0               80      0       0       4        0.0%
BITCOMRAM           7E      0       0       0        0.0%
COMRAM              7E     24      33       1       40.5%
BITSFR_5             0      0       0     200        0.0%
SFR_5                0      0       0     200        0.0%
BITSFR_4             0      0       0     200        0.0%
SFR_4                0      0       0     200        0.0%
BITSFR_3             0      0       0     200        0.0%
SFR_3                0      0       0     200        0.0%
BITSFR_2             0      0       0     200        0.0%
SFR_2                0      0       0     200        0.0%
BITSFR_1             0      0       0     200        0.0%
SFR_1                0      0       0     200        0.0%
BITSFR               0      0       0     200        0.0%
SFR                  0      0       0     200        0.0%
STACK                0      0       0       2        0.0%
NULL                 0      0       0       0        0.0%
ABS                  0      0      33      14        0.0%
DATA                 0      0      33      17        0.0%
CODE                 0      0       0       0        0.0%


Microchip Technology PIC18 Macro Assembler V1.44 build -154322312 
Symbol Table                                                                                   Thu Dec 21 18:23:59 2017

                     l92 03DC                       l93 03CC                       l86 041E  
                     l95 03FA                       l96 03E8                       l89 0434  
                     _Hi 0008                      ?_Hi 0001                      l110 0360  
                    l111 033E                      l112 034C                      l113 0346  
                    l109 032A                      l953 042E                      l945 040E  
                    _RB5 007C0D                      u440 035A                      u450 036E  
           __CFG_CPD$OFF 000000                      _red 0032                      wreg 000FE8  
                   ??_Hi 000B             __CFG_LVP$OFF 000000             __CFG_WDT$OFF 000000  
                   l1055 033E                     l1057 0346                     _LATC 000F8B  
                   _LATD 000F8C                     i2l51 02EE                     i2l60 0014  
                   i2l62 00A8                     i2l71 0156                     i2l63 007A  
                   i2l56 0324                     i2l80 0206                     i2l72 0128  
                   i2l81 01D6                     i2l65 00E4                     i2l74 0192  
                   i2l66 00B4                     i2l75 0162                     i2l59 0042  
                   i2l68 011C                     i2l77 01CC                     i2l69 00EE  
                   i2l78 019C                     _flag 0028                     _blue 002E  
                   _main 0326                     _init 0378                     fsr0h 000FEA  
                   fsr1h 000FE2                     fsr2h 000FDA                     fsr0l 000FE9  
                   fsr1l 000FE1                     fsr2l 000FD9                     btemp 0034  
          __CFG_BOREN$ON 000000                     prodh 000FF4                     prodl 000FF3  
                   start 000E            __CFG_MCLRE$ON 000000             ___param_bank 000000  
                  ?_main 0001                    ?_init 0001                    i2l103 026A  
                  i2l921 02DE                    i2l933 030E                    i2l937 031E  
                  i2l929 02FE                    _TRISC 000F94                    _TRISD 000F95  
          __CFG_PWRT$OFF 000000                    _green 0030                    _white 002C  
                  main@k 0021                    main@l 0023                    _wshow 0404  
        __end_of_rgbshow 0326                    pclath 000FFA                    tablat 000FF5  
                  status 000FD8                    wtemp6 0035          __initialization 0436  
           __end_of_main 0378             __end_of_init 03CA                   ??_main 0021  
                 ??_init 001D            __activetblptr 000000                   ?_wshow 001D  
                 _effect 002A                   clear_0 043C                   _wstart 03CA  
       __end_of_rgbstart 0210                ??_rgbshow 0007                   tblptrh 000FF7  
                 tblptrl 000FF6                   tblptru 000FF8                   wshow@i 001F  
             __accesstop 0080  __end_of__initialization 0442          __CFG_PBADEN$OFF 000000  
          ___rparam_used 000001           __pcstackCOMRAM 0001            __end_of_wshow 0436  
             __end_of_Hi 02B6                  ??_wshow 001F                  ?_wstart 0001  
            rgbshow@bval 0005              rgbshow@gval 0003              rgbshow@rval 0001  
                i2u50_47 00A0                  i2u51_47 00DC                  i2u52_47 0114  
                i2u53_47 014E                  i2u54_47 018A                  i2u55_47 01C4  
                i2u47_47 003A                  i2u56_47 01FE                  i2u48_47 0054  
                i2u49_47 006A                  __Hparam 0000                ?_rgbstart 0001  
                __Lparam 0000                  __pcinit 0436                  __ramtop 0600  
                __ptext0 0326                  __ptext1 03CA                  __ptext2 0404  
                __ptext3 0378                  __ptext5 0012                  __ptext6 02B6  
        __size_of_wstart 003A                  _rgbshow 02B6           __pintcode_body 0210  
   end_of_initialization 0442                  int_func 0210               ??_rgbstart 0009  
                postinc0 000FEE                _PORTBbits 000F81                _TRISBbits 000F93  
    start_initialization 0436           __end_of_wstart 0404         __CFG_OSC$INTIO67 000000  
               ??_wstart 0021              __pbssCOMRAM 0025                __pintcode 0008  
      __size_of_rgbstart 01FE                 ?_rgbshow 0001              __size_of_Hi 02AE  
         __size_of_wshow 0032                 _LATBbits 000F8A                 _LATCbits 000F8B  
               _LATDbits 000F8C                 _RCONbits 000FD0              _INTCON2bits 000FF1  
               __Hrparam 0000                 __Lrparam 0000         __size_of_rgbshow 0070  
               _distance 0025            __size_of_main 0052            __size_of_init 0052  
               _rgbstart 0012                 int$flags 0034               _INTCONbits 000FF2  
               intlevel2 0000                 rgbshow@i 0007               _OSCCONbits 000FD3  
              wshow@wval 001D  
