

Microchip Technology PIC18 LITE Macro Assembler V1.44 build -154322312 
                                                                                               Fri Dec 22 19:15:16 2017

Microchip Technology Omniscient Code Generator v1.44 (Free mode) build 201709140600
     1                           	processor	18F4520
     2                           	fnconf	rparam,??,?,0
     3                           	opt	pw 120
     4                           	opt	lm
     5                           	psect	cinit,global,reloc=2,class=CODE,delta=1
     6                           	psect	bssCOMRAM,global,class=COMRAM,space=1,delta=1,noexec
     7                           	psect	cstackBANK0,global,class=BANK0,space=1,delta=1,noexec
     8                           	psect	cstackCOMRAM,global,class=COMRAM,space=1,delta=1,noexec
     9                           	psect	text0,global,reloc=2,class=CODE,delta=1
    10                           	psect	text1,global,reloc=2,class=CODE,delta=1
    11                           	psect	text2,global,reloc=2,class=CODE,delta=1
    12                           	psect	text3,global,reloc=2,class=CODE,delta=1
    13                           	psect	intcode,global,reloc=2,class=CODE,delta=1
    14                           	psect	intcode_body,global,reloc=2,class=CODE,delta=1
    15                           	psect	text5,global,reloc=2,class=CODE,delta=1
    16                           	psect	text6,global,reloc=2,class=CODE,delta=1
    17                           	psect	text7,global,reloc=2,class=CODE,delta=1
    18                           	psect	text8,global,reloc=2,class=CODE,delta=1
    19                           	psect	text9,global,reloc=2,class=CODE,delta=1
    20                           	psect	intsave_regs,global,class=BIGRAM,space=1,delta=1,noexec
    21                           	psect	rparam,global,class=COMRAM,space=1,delta=1,noexec
    22                           	psect	temp,global,ovrld,common,class=COMRAM,space=1,delta=1
    23  0000                     
    24                           ; Version 1.44
    25                           ; Generated 14/09/2017 GMT
    26                           ; 
    27                           ; Copyright © 2017, Microchip Technology Inc. and its subsidiaries ("Microchip")
    28                           ; All rights reserved.
    29                           ; 
    30                           ; This software is developed by Microchip Technology Inc. and its subsidiaries ("Microch
      +                          ip").
    31                           ; 
    32                           ; Redistribution and use in source and binary forms, with or without modification, are
    33                           ; permitted provided that the following conditions are met:
    34                           ; 
    35                           ;     1. Redistributions of source code must retain the above copyright notice, this lis
      +                          t of
    36                           ;        conditions and the following disclaimer.
    37                           ; 
    38                           ;     2. Redistributions in binary form must reproduce the above copyright notice, this 
      +                          list
    39                           ;        of conditions and the following disclaimer in the documentation and/or other
    40                           ;        materials provided with the distribution.
    41                           ; 
    42                           ;     3. Microchip's name may not be used to endorse or promote products derived from th
      +                          is
    43                           ;        software without specific prior written permission.
    44                           ; 
    45                           ; THIS SOFTWARE IS PROVIDED BY MICROCHIP "AS IS" AND ANY EXPRESS OR IMPLIED WARRANTIES,
    46                           ; INCLUDING, BUT NOT LIMITED TO, THE IMPLIED WARRANTIES OF MERCHANTABILITY AND FITNESS F
      +                          OR
    47                           ; PURPOSE ARE DISCLAIMED.  IN NO EVENT SHALL MICROCHIP BE LIABLE FOR ANY DIRECT, INDIREC
      +                          T,
    48                           ; INCIDENTAL, SPECIAL, EXEMPLARY, OR CONSEQUENTIAL DAMAGES (INCLUDING BUT NOT LIMITED TO
    49                           ; PROCUREMENT OF SUBSTITUTE GOODS OR SERVICES; LOSS OF USE, DATA OR PROFITS; OR BUSINESS
    50                           ; INTERRUPTION) HOWSOEVER CAUSED AND ON ANY THEORY OF LIABILITY, WHETHER IN CONTRACT, ST
      +                          RICT
    51                           ; LIABILITY, OR TORT (INCLUDING NEGLIGENCE OR OTHERWISE) ARISING IN ANY WAY OUT OF THE U
      +                          SE OF
    52                           ; THIS SOFTWARE, EVEN IF ADVISED OF THE POSSIBILITY OF SUCH DAMAGE.
    53                           ; 
    54                           ; 
    55                           ; Code-generator required, PIC18F4520 Definitions
    56                           ; 
    57                           ; SFR Addresses
    58  0000                     _LATDbits	set	3980
    59  0000                     _LATCbits	set	3979
    60  0000                     _PORTBbits	set	3969
    61  0000                     _LATBbits	set	3978
    62  0000                     _TRISBbits	set	3987
    63  0000                     _LATD	set	3980
    64  0000                     _LATC	set	3979
    65  0000                     _TRISD	set	3989
    66  0000                     _TRISC	set	3988
    67  0000                     _RB5	set	31757
    68  0000                     _RCONbits	set	4048
    69  0000                     _OSCCONbits	set	4051
    70  0000                     _INTCON2bits	set	4081
    71  0000                     _INTCONbits	set	4082
    72                           
    73                           ; #config settings
    74  0000                     
    75                           	psect	cinit
    76  0007AA                     __pcinit:
    77                           	opt stack 0
    78  0007AA                     start_initialization:
    79                           	opt stack 0
    80  0007AA                     __initialization:
    81                           	opt stack 0
    82                           
    83                           ; Clear objects allocated to COMRAM (17 bytes)
    84  0007AA  EE00  F039         	lfsr	0,__pbssCOMRAM
    85  0007AE  0E11               	movlw	17
    86  0007B0                     clear_0:
    87  0007B0  6AEE               	clrf	postinc0,c
    88  0007B2  06E8               	decf	wreg,f,c
    89  0007B4  E1FD               	bnz	clear_0
    90  0007B6                     end_of_initialization:
    91                           	opt stack 0
    92  0007B6                     __end_of__initialization:
    93                           	opt stack 0
    94  0007B6  904A               	bcf	int$flags,0,c	;clear compiler interrupt flag (level 1)
    95  0007B8  924A               	bcf	int$flags,1,c	;clear compiler interrupt flag (level 2)
    96  0007BA  0100               	movlb	0
    97  0007BC  EF51  F003         	goto	_main	;jump to C main() function
    98                           postinc0	equ	0xFEE
    99                           wreg	equ	0xFE8
   100                           
   101                           	psect	bssCOMRAM
   102  000039                     __pbssCOMRAM:
   103                           	opt stack 0
   104  000039                     _distance:
   105                           	opt stack 0
   106  000039                     	ds	3
   107  00003C                     _white:
   108                           	opt stack 0
   109  00003C                     	ds	2
   110  00003E                     _blue2:
   111                           	opt stack 0
   112  00003E                     	ds	2
   113  000040                     _green2:
   114                           	opt stack 0
   115  000040                     	ds	2
   116  000042                     _red2:
   117                           	opt stack 0
   118  000042                     	ds	2
   119  000044                     _blue:
   120                           	opt stack 0
   121  000044                     	ds	2
   122  000046                     _green:
   123                           	opt stack 0
   124  000046                     	ds	2
   125  000048                     _red:
   126                           	opt stack 0
   127  000048                     	ds	2
   128                           postinc0	equ	0xFEE
   129                           wreg	equ	0xFE8
   130                           
   131                           	psect	cstackBANK0
   132  000080                     __pcstackBANK0:
   133                           	opt stack 0
   134  000080                     main@k:
   135                           	opt stack 0
   136                           
   137                           ; 2 bytes @ 0x0
   138  000080                     	ds	2
   139  000082                     main@l:
   140                           	opt stack 0
   141                           
   142                           ; 2 bytes @ 0x2
   143  000082                     	ds	2
   144                           postinc0	equ	0xFEE
   145                           wreg	equ	0xFE8
   146                           
   147                           	psect	cstackCOMRAM
   148  000001                     __pcstackCOMRAM:
   149                           	opt stack 0
   150  000001                     rgbshowone@rval:
   151                           	opt stack 0
   152  000001                     rgbshowsix@rval:
   153                           	opt stack 0
   154                           
   155                           ; 2 bytes @ 0x0
   156  000001                     	ds	2
   157  000003                     rgbshowone@gval:
   158                           	opt stack 0
   159  000003                     rgbshowsix@gval:
   160                           	opt stack 0
   161                           
   162                           ; 2 bytes @ 0x2
   163  000003                     	ds	2
   164  000005                     rgbshowone@bval:
   165                           	opt stack 0
   166  000005                     rgbshowsix@bval:
   167                           	opt stack 0
   168                           
   169                           ; 2 bytes @ 0x4
   170  000005                     	ds	2
   171  000007                     rgbshowone@flag:
   172                           	opt stack 0
   173  000007                     rgbshowsix@rval2:
   174                           	opt stack 0
   175                           
   176                           ; 2 bytes @ 0x6
   177  000007                     	ds	2
   178  000009                     rgbshowone@i:
   179                           	opt stack 0
   180  000009                     rgbshowsix@gval2:
   181                           	opt stack 0
   182                           
   183                           ; 2 bytes @ 0x8
   184  000009                     	ds	2
   185  00000B                     rgbshowone@i_529:
   186                           	opt stack 0
   187  00000B                     rgbshowsix@bval2:
   188                           	opt stack 0
   189                           
   190                           ; 2 bytes @ 0xA
   191  00000B                     	ds	2
   192  00000D                     rgbshowone@i_530:
   193                           	opt stack 0
   194  00000D                     rgbshowsix@flag:
   195                           	opt stack 0
   196                           
   197                           ; 2 bytes @ 0xC
   198  00000D                     	ds	2
   199  00000F                     rgbshowone@i_531:
   200                           	opt stack 0
   201  00000F                     rgbshowsix@i:
   202                           	opt stack 0
   203                           
   204                           ; 2 bytes @ 0xE
   205  00000F                     	ds	2
   206  000011                     rgbshowsix@i_541:
   207                           	opt stack 0
   208                           
   209                           ; 2 bytes @ 0x10
   210  000011                     	ds	2
   211  000013                     rgbshow@rval:
   212                           	opt stack 0
   213                           
   214                           ; 2 bytes @ 0x12
   215  000013                     	ds	2
   216  000015                     rgbshow@gval:
   217                           	opt stack 0
   218                           
   219                           ; 2 bytes @ 0x14
   220  000015                     	ds	2
   221  000017                     rgbshow@bval:
   222                           	opt stack 0
   223                           
   224                           ; 2 bytes @ 0x16
   225  000017                     	ds	2
   226  000019                     rgbshow@rval2:
   227                           	opt stack 0
   228                           
   229                           ; 2 bytes @ 0x18
   230  000019                     	ds	2
   231  00001B                     rgbshow@gval2:
   232                           	opt stack 0
   233                           
   234                           ; 2 bytes @ 0x1A
   235  00001B                     	ds	2
   236  00001D                     rgbshow@bval2:
   237                           	opt stack 0
   238                           
   239                           ; 2 bytes @ 0x1C
   240  00001D                     	ds	2
   241  00001F                     rgbshow@flag:
   242                           	opt stack 0
   243                           
   244                           ; 2 bytes @ 0x1E
   245  00001F                     	ds	2
   246  000021                     rgbshow@i:
   247                           	opt stack 0
   248                           
   249                           ; 2 bytes @ 0x20
   250  000021                     	ds	2
   251  000023                     ??_Hi:
   252                           
   253                           ; 1 bytes @ 0x22
   254  000023                     	ds	18
   255  000035                     wshow@wval:
   256                           	opt stack 0
   257                           
   258                           ; 2 bytes @ 0x34
   259  000035                     	ds	2
   260  000037                     wshow@i:
   261                           	opt stack 0
   262                           
   263                           ; 2 bytes @ 0x36
   264  000037                     	ds	2
   265  000039                     postinc0	equ	0xFEE
   266                           wreg	equ	0xFE8
   267                           
   268                           ; 1 bytes @ 0x38
   269 ;;
   270 ;;Main: autosize = 0, tempsize = 0, incstack = 0, save=0
   271 ;;
   272 ;; *************** function _main *****************
   273 ;; Defined at:
   274 ;;		line 405 in file "mainproject.c"
   275 ;; Parameters:    Size  Location     Type
   276 ;;		None
   277 ;; Auto vars:     Size  Location     Type
   278 ;;  l               2    2[BANK0 ] int 
   279 ;;  k               2    0[BANK0 ] int 
   280 ;; Return value:  Size  Location     Type
   281 ;;                  1    wreg      void 
   282 ;; Registers used:
   283 ;;		wreg, status,2, status,0, cstack
   284 ;; Tracked objects:
   285 ;;		On entry : 0/0
   286 ;;		On exit  : 0/0
   287 ;;		Unchanged: 0/0
   288 ;; Data sizes:     COMRAM   BANK0   BANK1   BANK2   BANK3   BANK4   BANK5
   289 ;;      Params:         0       0       0       0       0       0       0
   290 ;;      Locals:         0       4       0       0       0       0       0
   291 ;;      Temps:          0       0       0       0       0       0       0
   292 ;;      Totals:         0       4       0       0       0       0       0
   293 ;;Total ram usage:        4 bytes
   294 ;; Hardware stack levels required when called:    6
   295 ;; This function calls:
   296 ;;		_init
   297 ;;		_wstart
   298 ;; This function is called by:
   299 ;;		Startup code after reset
   300 ;; This function uses a non-reentrant model
   301 ;;
   302                           
   303                           	psect	text0
   304  0006A2                     __ptext0:
   305                           	opt stack 0
   306  0006A2                     _main:
   307                           	opt stack 25
   308                           
   309                           ;mainproject.c: 406: init();
   310                           
   311                           ;incstack = 0
   312  0006A2  EC1E  F003         	call	_init	;wreg free
   313  0006A6                     
   314                           ;mainproject.c: 408: wstart();
   315  0006A6  EC9F  F003         	call	_wstart	;wreg free
   316                           
   317                           ;mainproject.c: 409: int k = 10 , l = 255;
   318  0006AA  0E00               	movlw	0
   319  0006AC  0100               	movlb	0	; () banked
   320  0006AE  6F81               	movwf	(main@k+1)& (0+255),b
   321  0006B0  0E0A               	movlw	10
   322  0006B2  6F80               	movwf	main@k& (0+255),b
   323                           
   324                           ; BSR set to: 0
   325  0006B4  0E00               	movlw	0
   326  0006B6  6F83               	movwf	(main@l+1)& (0+255),b
   327  0006B8  6982               	setf	main@l& (0+255),b
   328                           
   329                           ;mainproject.c: 410: while( k > 0 ) {
   330  0006BA  D011               	goto	l152
   331  0006BC                     l1433:
   332                           
   333                           ; BSR set to: 0
   334                           ;mainproject.c: 411: l = 255;
   335  0006BC  0E00               	movlw	0
   336  0006BE  6F83               	movwf	(main@l+1)& (0+255),b
   337  0006C0  6982               	setf	main@l& (0+255),b
   338                           
   339                           ;mainproject.c: 412: while( l > 0) {
   340  0006C2  D003               	goto	l154
   341  0006C4                     l1435:
   342                           
   343                           ; BSR set to: 0
   344                           ;mainproject.c: 413: l--;
   345  0006C4  0782               	decf	main@l& (0+255),f,b
   346  0006C6  A0D8               	btfss	status,0,c
   347  0006C8  0783               	decf	(main@l+1)& (0+255),f,b
   348  0006CA                     l154:
   349                           
   350                           ; BSR set to: 0
   351                           
   352                           ; BSR set to: 0
   353  0006CA  BF83               	btfsc	(main@l+1)& (0+255),7,b
   354  0006CC  D005               	goto	u1200
   355  0006CE  5183               	movf	(main@l+1)& (0+255),w,b
   356  0006D0  E1F9               	bnz	l1435
   357  0006D2  0582               	decf	main@l& (0+255),w,b
   358  0006D4  B0D8               	btfsc	status,0,c
   359  0006D6  D7F6               	goto	l155
   360  0006D8                     u1200:
   361                           
   362                           ; BSR set to: 0
   363                           ;mainproject.c: 414: }
   364                           ;mainproject.c: 415: k--;
   365                           
   366                           ; BSR set to: 0
   367  0006D8  0780               	decf	main@k& (0+255),f,b
   368  0006DA  A0D8               	btfss	status,0,c
   369  0006DC  0781               	decf	(main@k+1)& (0+255),f,b
   370  0006DE                     l152:
   371                           
   372                           ; BSR set to: 0
   373                           
   374                           ; BSR set to: 0
   375  0006DE  BF81               	btfsc	(main@k+1)& (0+255),7,b
   376  0006E0  D005               	goto	u1210
   377  0006E2  5181               	movf	(main@k+1)& (0+255),w,b
   378  0006E4  E1EB               	bnz	l1433
   379  0006E6  0580               	decf	main@k& (0+255),w,b
   380  0006E8  B0D8               	btfsc	status,0,c
   381  0006EA  D7E8               	goto	l153
   382  0006EC                     u1210:
   383                           
   384                           ; BSR set to: 0
   385                           ;mainproject.c: 416: }
   386                           ;mainproject.c: 418: if(RB5){
   387  0006EC  AA81               	btfss	3969,5,c	;volatile
   388  0006EE  D7DB               	goto	l151
   389                           
   390                           ; BSR set to: 0
   391                           ;mainproject.c: 420: INTCONbits.INT0IF = 1;
   392  0006F0  82F2               	bsf	intcon,1,c	;volatile
   393                           
   394                           ; BSR set to: 0
   395                           
   396                           ; BSR set to: 0
   397  0006F2  D7D9               	goto	l151
   398  0006F4                     __end_of_main:
   399                           	opt stack 0
   400                           intcon	equ	0xFF2
   401                           postinc0	equ	0xFEE
   402                           wreg	equ	0xFE8
   403                           status	equ	0xFD8
   404                           
   405 ;; *************** function _wstart *****************
   406 ;; Defined at:
   407 ;;		line 382 in file "mainproject.c"
   408 ;; Parameters:    Size  Location     Type
   409 ;;		None
   410 ;; Auto vars:     Size  Location     Type
   411 ;;		None
   412 ;; Return value:  Size  Location     Type
   413 ;;                  1    wreg      void 
   414 ;; Registers used:
   415 ;;		wreg, status,2, status,0, cstack
   416 ;; Tracked objects:
   417 ;;		On entry : 0/0
   418 ;;		On exit  : 0/0
   419 ;;		Unchanged: 0/0
   420 ;; Data sizes:     COMRAM   BANK0   BANK1   BANK2   BANK3   BANK4   BANK5
   421 ;;      Params:         0       0       0       0       0       0       0
   422 ;;      Locals:         0       0       0       0       0       0       0
   423 ;;      Temps:          0       0       0       0       0       0       0
   424 ;;      Totals:         0       0       0       0       0       0       0
   425 ;;Total ram usage:        0 bytes
   426 ;; Hardware stack levels used:    1
   427 ;; Hardware stack levels required when called:    5
   428 ;; This function calls:
   429 ;;		_wshow
   430 ;; This function is called by:
   431 ;;		_main
   432 ;; This function uses a non-reentrant model
   433 ;;
   434                           
   435                           	psect	text1
   436  00073E                     __ptext1:
   437                           	opt stack 0
   438  00073E                     _wstart:
   439                           	opt stack 25
   440                           
   441                           ;mainproject.c: 383: while(white!=200){
   442                           
   443                           ; BSR set to: 0
   444                           ;incstack = 0
   445  00073E  D008               	goto	l134
   446  000740                     
   447                           ;mainproject.c: 384: white++;
   448  000740  4A3C               	infsnz	_white,f,c
   449  000742  2A3D               	incf	_white+1,f,c
   450                           
   451                           ;mainproject.c: 385: wshow(white);
   452  000744  C03C  F035         	movff	_white,wshow@wval
   453  000748  C03D  F036         	movff	_white+1,wshow@wval+1
   454  00074C  ECBC  F003         	call	_wshow	;wreg free
   455  000750                     l134:
   456  000750  0EC8               	movlw	200
   457  000752  183C               	xorwf	_white,w,c
   458  000754  103D               	iorwf	_white+1,w,c
   459  000756  B4D8               	btfsc	status,2,c
   460  000758  D00A               	goto	l137
   461  00075A  D7F2               	goto	l135
   462  00075C                     
   463                           ;mainproject.c: 388: white--;
   464  00075C  063C               	decf	_white,f,c
   465  00075E  A0D8               	btfss	status,0,c
   466  000760  063D               	decf	_white+1,f,c
   467                           
   468                           ;mainproject.c: 389: wshow(white);
   469  000762  C03C  F035         	movff	_white,wshow@wval
   470  000766  C03D  F036         	movff	_white+1,wshow@wval+1
   471  00076A  ECBC  F003         	call	_wshow	;wreg free
   472  00076E                     l137:
   473  00076E  503C               	movf	_white,w,c
   474  000770  103D               	iorwf	_white+1,w,c
   475  000772  B4D8               	btfsc	status,2,c
   476  000774  0012               	return	
   477  000776  D7F2               	goto	l138
   478  000778                     __end_of_wstart:
   479                           	opt stack 0
   480                           intcon	equ	0xFF2
   481                           postinc0	equ	0xFEE
   482                           wreg	equ	0xFE8
   483                           status	equ	0xFD8
   484                           
   485 ;; *************** function _wshow *****************
   486 ;; Defined at:
   487 ;;		line 374 in file "mainproject.c"
   488 ;; Parameters:    Size  Location     Type
   489 ;;  wval            2   52[COMRAM] int 
   490 ;; Auto vars:     Size  Location     Type
   491 ;;  i               2   54[COMRAM] int 
   492 ;; Return value:  Size  Location     Type
   493 ;;                  1    wreg      void 
   494 ;; Registers used:
   495 ;;		wreg, status,2, status,0
   496 ;; Tracked objects:
   497 ;;		On entry : 0/0
   498 ;;		On exit  : 0/0
   499 ;;		Unchanged: 0/0
   500 ;; Data sizes:     COMRAM   BANK0   BANK1   BANK2   BANK3   BANK4   BANK5
   501 ;;      Params:         2       0       0       0       0       0       0
   502 ;;      Locals:         2       0       0       0       0       0       0
   503 ;;      Temps:          0       0       0       0       0       0       0
   504 ;;      Totals:         4       0       0       0       0       0       0
   505 ;;Total ram usage:        4 bytes
   506 ;; Hardware stack levels used:    1
   507 ;; Hardware stack levels required when called:    4
   508 ;; This function calls:
   509 ;;		Nothing
   510 ;; This function is called by:
   511 ;;		_wstart
   512 ;; This function uses a non-reentrant model
   513 ;;
   514                           
   515                           	psect	text2
   516  000778                     __ptext2:
   517                           	opt stack 0
   518  000778                     _wshow:
   519                           	opt stack 25
   520                           
   521                           ;mainproject.c: 376: LATDbits.LATD4=1;
   522                           
   523                           ;incstack = 0
   524  000778  888C               	bsf	3980,4,c	;volatile
   525                           
   526                           ;mainproject.c: 377: for(int i=0;i<200;i++){
   527  00077A  0E00               	movlw	0
   528  00077C  6E38               	movwf	wshow@i+1,c
   529  00077E  0E00               	movlw	0
   530  000780  6E37               	movwf	wshow@i,c
   531  000782                     l1373:
   532  000782  BE38               	btfsc	wshow@i+1,7,c
   533  000784  D006               	goto	l128
   534  000786  5038               	movf	wshow@i+1,w,c
   535  000788  E10F               	bnz	l131
   536  00078A  0EC8               	movlw	200
   537  00078C  5C37               	subwf	wshow@i,w,c
   538  00078E  B0D8               	btfsc	status,0,c
   539  000790  0012               	return	
   540  000792                     l128:
   541                           
   542                           ;mainproject.c: 378: if((wval--)==0) LATDbits.LATD4=0;
   543  000792  0635               	decf	wshow@wval,f,c
   544  000794  A0D8               	btfss	status,0,c
   545  000796  0636               	decf	wshow@wval+1,f,c
   546  000798  2835               	incf	wshow@wval,w,c
   547  00079A  E103               	bnz	l1381
   548  00079C  2836               	incf	wshow@wval+1,w,c
   549  00079E  B4D8               	btfsc	status,2,c
   550  0007A0  988C               	bcf	3980,4,c	;volatile
   551  0007A2                     l1381:
   552  0007A2  4A37               	infsnz	wshow@i,f,c
   553  0007A4  2A38               	incf	wshow@i+1,f,c
   554  0007A6  D7ED               	goto	l1373
   555  0007A8                     l131:
   556  0007A8  0012               	return		;funcret
   557  0007AA                     __end_of_wshow:
   558                           	opt stack 0
   559                           intcon	equ	0xFF2
   560                           postinc0	equ	0xFEE
   561                           wreg	equ	0xFE8
   562                           status	equ	0xFD8
   563                           
   564 ;; *************** function _init *****************
   565 ;; Defined at:
   566 ;;		line 40 in file "mainproject.c"
   567 ;; Parameters:    Size  Location     Type
   568 ;;		None
   569 ;; Auto vars:     Size  Location     Type
   570 ;;		None
   571 ;; Return value:  Size  Location     Type
   572 ;;                  1    wreg      void 
   573 ;; Registers used:
   574 ;;		wreg, status,2
   575 ;; Tracked objects:
   576 ;;		On entry : 0/0
   577 ;;		On exit  : 0/0
   578 ;;		Unchanged: 0/0
   579 ;; Data sizes:     COMRAM   BANK0   BANK1   BANK2   BANK3   BANK4   BANK5
   580 ;;      Params:         0       0       0       0       0       0       0
   581 ;;      Locals:         0       0       0       0       0       0       0
   582 ;;      Temps:          0       0       0       0       0       0       0
   583 ;;      Totals:         0       0       0       0       0       0       0
   584 ;;Total ram usage:        0 bytes
   585 ;; Hardware stack levels used:    1
   586 ;; Hardware stack levels required when called:    4
   587 ;; This function calls:
   588 ;;		Nothing
   589 ;; This function is called by:
   590 ;;		_main
   591 ;; This function uses a non-reentrant model
   592 ;;
   593                           
   594                           	psect	text3
   595  00063C                     __ptext3:
   596                           	opt stack 0
   597  00063C                     _init:
   598                           	opt stack 26
   599                           
   600                           ;mainproject.c: 42: OSCCONbits.IRCF2 = 1;
   601                           
   602                           ;incstack = 0
   603  00063C  8CD3               	bsf	4051,6,c	;volatile
   604                           
   605                           ;mainproject.c: 43: OSCCONbits.IRCF1 = 1;
   606  00063E  8AD3               	bsf	4051,5,c	;volatile
   607                           
   608                           ;mainproject.c: 44: OSCCONbits.IRCF0 = 0;
   609  000640  98D3               	bcf	4051,4,c	;volatile
   610                           
   611                           ;mainproject.c: 46: TRISC=0;
   612  000642  0E00               	movlw	0
   613  000644  6E94               	movwf	3988,c	;volatile
   614                           
   615                           ;mainproject.c: 47: TRISD=0;
   616  000646  0E00               	movlw	0
   617  000648  6E95               	movwf	3989,c	;volatile
   618                           
   619                           ;mainproject.c: 48: LATC=0;
   620  00064A  0E00               	movlw	0
   621  00064C  6E8B               	movwf	3979,c	;volatile
   622                           
   623                           ;mainproject.c: 49: LATD=0;
   624  00064E  0E00               	movlw	0
   625  000650  6E8C               	movwf	3980,c	;volatile
   626                           
   627                           ;mainproject.c: 51: TRISBbits.TRISB0=1;
   628  000652  8093               	bsf	3987,0,c	;volatile
   629                           
   630                           ;mainproject.c: 52: red=0;
   631  000654  0E00               	movlw	0
   632  000656  6E49               	movwf	_red+1,c
   633  000658  0E00               	movlw	0
   634  00065A  6E48               	movwf	_red,c
   635                           
   636                           ;mainproject.c: 53: green=0;
   637  00065C  0E00               	movlw	0
   638  00065E  6E47               	movwf	_green+1,c
   639  000660  0E00               	movlw	0
   640  000662  6E46               	movwf	_green,c
   641                           
   642                           ;mainproject.c: 54: blue=0;
   643  000664  0E00               	movlw	0
   644  000666  6E45               	movwf	_blue+1,c
   645  000668  0E00               	movlw	0
   646  00066A  6E44               	movwf	_blue,c
   647                           
   648                           ;mainproject.c: 55: red2=0;
   649  00066C  0E00               	movlw	0
   650  00066E  6E43               	movwf	_red2+1,c
   651  000670  0E00               	movlw	0
   652  000672  6E42               	movwf	_red2,c
   653                           
   654                           ;mainproject.c: 56: green2=0;
   655  000674  0E00               	movlw	0
   656  000676  6E41               	movwf	_green2+1,c
   657  000678  0E00               	movlw	0
   658  00067A  6E40               	movwf	_green2,c
   659                           
   660                           ;mainproject.c: 57: blue2=0;
   661  00067C  0E00               	movlw	0
   662  00067E  6E3F               	movwf	_blue2+1,c
   663  000680  0E00               	movlw	0
   664  000682  6E3E               	movwf	_blue2,c
   665                           
   666                           ;mainproject.c: 59: RCONbits.IPEN=1;
   667  000684  8ED0               	bsf	4048,7,c	;volatile
   668                           
   669                           ;mainproject.c: 60: INTCONbits.GIEH=1;
   670  000686  8EF2               	bsf	intcon,7,c	;volatile
   671                           
   672                           ;mainproject.c: 61: INTCONbits.INT0IF=0;
   673  000688  92F2               	bcf	intcon,1,c	;volatile
   674                           
   675                           ;mainproject.c: 62: INTCONbits.INT0IE=1;
   676  00068A  88F2               	bsf	intcon,4,c	;volatile
   677                           
   678                           ;mainproject.c: 63: INTCON2bits.INTEDG0=1;
   679  00068C  8CF1               	bsf	intcon2,6,c	;volatile
   680                           
   681                           ;mainproject.c: 64: LATBbits.LATB0=0;
   682  00068E  908A               	bcf	3978,0,c	;volatile
   683                           
   684                           ;mainproject.c: 65: PORTBbits.RB0=0;
   685  000690  9081               	bcf	3969,0,c	;volatile
   686                           
   687                           ;mainproject.c: 67: TRISBbits.TRISB4=0;
   688  000692  9893               	bcf	3987,4,c	;volatile
   689                           
   690                           ;mainproject.c: 68: TRISBbits.TRISB5=1;
   691  000694  8A93               	bsf	3987,5,c	;volatile
   692                           
   693                           ;mainproject.c: 69: LATBbits.LATB5=0;
   694  000696  9A8A               	bcf	3978,5,c	;volatile
   695                           
   696                           ;mainproject.c: 71: white=0;
   697  000698  0E00               	movlw	0
   698  00069A  6E3D               	movwf	_white+1,c
   699  00069C  0E00               	movlw	0
   700  00069E  6E3C               	movwf	_white,c
   701  0006A0  0012               	return		;funcret
   702  0006A2                     __end_of_init:
   703                           	opt stack 0
   704                           intcon	equ	0xFF2
   705                           intcon2	equ	0xFF1
   706                           postinc0	equ	0xFEE
   707                           wreg	equ	0xFE8
   708                           status	equ	0xFD8
   709                           
   710 ;; *************** function _Hi *****************
   711 ;; Defined at:
   712 ;;		line 393 in file "mainproject.c"
   713 ;; Parameters:    Size  Location     Type
   714 ;;		None
   715 ;; Auto vars:     Size  Location     Type
   716 ;;		None
   717 ;; Return value:  Size  Location     Type
   718 ;;                  1    wreg      void 
   719 ;; Registers used:
   720 ;;		wreg, status,2, status,0, cstack
   721 ;; Tracked objects:
   722 ;;		On entry : 0/0
   723 ;;		On exit  : 0/0
   724 ;;		Unchanged: 0/0
   725 ;; Data sizes:     COMRAM   BANK0   BANK1   BANK2   BANK3   BANK4   BANK5
   726 ;;      Params:         0       0       0       0       0       0       0
   727 ;;      Locals:         0       0       0       0       0       0       0
   728 ;;      Temps:         18       0       0       0       0       0       0
   729 ;;      Totals:        18       0       0       0       0       0       0
   730 ;;Total ram usage:       18 bytes
   731 ;; Hardware stack levels used:    1
   732 ;; Hardware stack levels required when called:    3
   733 ;; This function calls:
   734 ;;		_rgbstart
   735 ;; This function is called by:
   736 ;;		Interrupt level 2
   737 ;; This function uses a non-reentrant model
   738 ;;
   739                           
   740                           	psect	intcode
   741  000008                     __pintcode:
   742                           	opt stack 0
   743  000008                     _Hi:
   744                           	opt stack 25
   745                           
   746                           ;incstack = 0
   747  000008  824A               	bsf	btemp,1,c	;set compiler interrupt flag (level 2)
   748  00000A  ED7C  F002         	call	int_func,f	;refresh shadow registers
   749                           intcon	equ	0xFF2
   750                           intcon2	equ	0xFF1
   751                           postinc0	equ	0xFEE
   752                           wreg	equ	0xFE8
   753                           status	equ	0xFD8
   754                           
   755                           	psect	intcode_body
   756  0004F8                     __pintcode_body:
   757                           	opt stack 25
   758  0004F8                     int_func:
   759                           	opt stack 25
   760  0004F8  0006               	pop		; remove dummy address from shadow register refresh
   761  0004FA  CFFA F023          	movff	pclath,??_Hi
   762  0004FE  CFFB F024          	movff	pclatu,??_Hi+1
   763  000502  CFE9 F025          	movff	fsr0l,??_Hi+2
   764  000506  CFEA F026          	movff	fsr0h,??_Hi+3
   765  00050A  CFE1 F027          	movff	fsr1l,??_Hi+4
   766  00050E  CFE2 F028          	movff	fsr1h,??_Hi+5
   767  000512  CFD9 F029          	movff	fsr2l,??_Hi+6
   768  000516  CFDA F02A          	movff	fsr2h,??_Hi+7
   769  00051A  CFF3 F02B          	movff	prodl,??_Hi+8
   770  00051E  CFF4 F02C          	movff	prodh,??_Hi+9
   771  000522  CFF6 F02D          	movff	tblptrl,??_Hi+10
   772  000526  CFF7 F02E          	movff	tblptrh,??_Hi+11
   773  00052A  CFF8 F02F          	movff	tblptru,??_Hi+12
   774  00052E  CFF5 F030          	movff	tablat,??_Hi+13
   775  000532  C04A  F031         	movff	btemp,??_Hi+14
   776  000536  C04B  F032         	movff	btemp+1,??_Hi+15
   777  00053A  C04C  F033         	movff	btemp+2,??_Hi+16
   778  00053E  C04D  F034         	movff	btemp+3,??_Hi+17
   779                           
   780                           ;mainproject.c: 395: if(INTCONbits.INT0IF == 1) {
   781  000542  A2F2               	btfss	intcon,1,c	;volatile
   782  000544  D006               	goto	i2l145
   783                           
   784                           ;mainproject.c: 396: LATDbits.LATD4=0;
   785  000546  988C               	bcf	3980,4,c	;volatile
   786                           
   787                           ;mainproject.c: 397: rgbstart();
   788  000548  EC09  F000         	call	_rgbstart	;wreg free
   789                           
   790                           ;mainproject.c: 398: PORTBbits.RB0=0;
   791  00054C  9081               	bcf	3969,0,c	;volatile
   792                           
   793                           ;mainproject.c: 399: LATBbits.LATB0=0;
   794  00054E  908A               	bcf	3978,0,c	;volatile
   795                           
   796                           ;mainproject.c: 400: INTCONbits.INT0IF = 0;
   797  000550  92F2               	bcf	intcon,1,c	;volatile
   798  000552                     i2l145:
   799  000552  C034  F04D         	movff	??_Hi+17,btemp+3
   800  000556  C033  F04C         	movff	??_Hi+16,btemp+2
   801  00055A  C032  F04B         	movff	??_Hi+15,btemp+1
   802  00055E  C031  F04A         	movff	??_Hi+14,btemp
   803  000562  C030  FFF5         	movff	??_Hi+13,tablat
   804  000566  C02F  FFF8         	movff	??_Hi+12,tblptru
   805  00056A  C02E  FFF7         	movff	??_Hi+11,tblptrh
   806  00056E  C02D  FFF6         	movff	??_Hi+10,tblptrl
   807  000572  C02C  FFF4         	movff	??_Hi+9,prodh
   808  000576  C02B  FFF3         	movff	??_Hi+8,prodl
   809  00057A  C02A  FFDA         	movff	??_Hi+7,fsr2h
   810  00057E  C029  FFD9         	movff	??_Hi+6,fsr2l
   811  000582  C028  FFE2         	movff	??_Hi+5,fsr1h
   812  000586  C027  FFE1         	movff	??_Hi+4,fsr1l
   813  00058A  C026  FFEA         	movff	??_Hi+3,fsr0h
   814  00058E  C025  FFE9         	movff	??_Hi+2,fsr0l
   815  000592  C024  FFFB         	movff	??_Hi+1,pclatu
   816  000596  C023  FFFA         	movff	??_Hi,pclath
   817  00059A  924A               	bcf	btemp,1,c	;clear compiler interrupt flag (level 2)
   818  00059C  0011               	retfie		f
   819  00059E                     __end_of_Hi:
   820                           	opt stack 0
   821                           pclatu	equ	0xFFB
   822                           pclath	equ	0xFFA
   823                           tblptru	equ	0xFF8
   824                           tblptrh	equ	0xFF7
   825                           tblptrl	equ	0xFF6
   826                           tablat	equ	0xFF5
   827                           prodh	equ	0xFF4
   828                           prodl	equ	0xFF3
   829                           intcon	equ	0xFF2
   830                           intcon2	equ	0xFF1
   831                           postinc0	equ	0xFEE
   832                           fsr0h	equ	0xFEA
   833                           fsr0l	equ	0xFE9
   834                           wreg	equ	0xFE8
   835                           fsr1h	equ	0xFE2
   836                           fsr1l	equ	0xFE1
   837                           fsr2h	equ	0xFDA
   838                           fsr2l	equ	0xFD9
   839                           status	equ	0xFD8
   840                           
   841 ;; *************** function _rgbstart *****************
   842 ;; Defined at:
   843 ;;		line 218 in file "mainproject.c"
   844 ;; Parameters:    Size  Location     Type
   845 ;;		None
   846 ;; Auto vars:     Size  Location     Type
   847 ;;		None
   848 ;; Return value:  Size  Location     Type
   849 ;;                  1    wreg      void 
   850 ;; Registers used:
   851 ;;		wreg, status,2, status,0, cstack
   852 ;; Tracked objects:
   853 ;;		On entry : 0/0
   854 ;;		On exit  : 0/0
   855 ;;		Unchanged: 0/0
   856 ;; Data sizes:     COMRAM   BANK0   BANK1   BANK2   BANK3   BANK4   BANK5
   857 ;;      Params:         0       0       0       0       0       0       0
   858 ;;      Locals:         0       0       0       0       0       0       0
   859 ;;      Temps:          0       0       0       0       0       0       0
   860 ;;      Totals:         0       0       0       0       0       0       0
   861 ;;Total ram usage:        0 bytes
   862 ;; Hardware stack levels used:    1
   863 ;; Hardware stack levels required when called:    2
   864 ;; This function calls:
   865 ;;		_rgbshow
   866 ;;		_zerorgb
   867 ;; This function is called by:
   868 ;;		_Hi
   869 ;; This function uses a non-reentrant model
   870 ;;
   871                           
   872                           	psect	text5
   873  000012                     __ptext5:
   874                           	opt stack 0
   875  000012                     _rgbstart:
   876                           	opt stack 25
   877                           
   878                           ;mainproject.c: 220: while( red <= 70 ){
   879                           
   880                           ;incstack = 0
   881  000012  D042               	goto	i2l116
   882  000014                     
   883                           ;mainproject.c: 221: red=red+10;
   884  000014  0E0A               	movlw	10
   885  000016  2448               	addwf	_red,w,c
   886  000018  6E48               	movwf	_red,c
   887  00001A  0E00               	movlw	0
   888  00001C  2049               	addwfc	_red+1,w,c
   889  00001E  6E49               	movwf	_red+1,c
   890                           
   891                           ;mainproject.c: 222: rgbshow(red,green,blue,red2,green2,blue2,0);
   892  000020  C048  F013         	movff	_red,rgbshow@rval
   893  000024  C049  F014         	movff	_red+1,rgbshow@rval+1
   894  000028  C046  F015         	movff	_green,rgbshow@gval
   895  00002C  C047  F016         	movff	_green+1,rgbshow@gval+1
   896  000030  C044  F017         	movff	_blue,rgbshow@bval
   897  000034  C045  F018         	movff	_blue+1,rgbshow@bval+1
   898  000038  C042  F019         	movff	_red2,rgbshow@rval2
   899  00003C  C043  F01A         	movff	_red2+1,rgbshow@rval2+1
   900  000040  C040  F01B         	movff	_green2,rgbshow@gval2
   901  000044  C041  F01C         	movff	_green2+1,rgbshow@gval2+1
   902  000048  C03E  F01D         	movff	_blue2,rgbshow@bval2
   903  00004C  C03F  F01E         	movff	_blue2+1,rgbshow@bval2+1
   904  000050  0E00               	movlw	0
   905  000052  6E20               	movwf	rgbshow@flag+1,c
   906  000054  0E00               	movlw	0
   907  000056  6E1F               	movwf	rgbshow@flag,c
   908  000058  ECCF  F002         	call	_rgbshow	;wreg free
   909                           
   910                           ;mainproject.c: 224: rgbshow(red,green,blue,red2,green2,blue2,1);
   911  00005C  C048  F013         	movff	_red,rgbshow@rval
   912  000060  C049  F014         	movff	_red+1,rgbshow@rval+1
   913  000064  C046  F015         	movff	_green,rgbshow@gval
   914  000068  C047  F016         	movff	_green+1,rgbshow@gval+1
   915  00006C  C044  F017         	movff	_blue,rgbshow@bval
   916  000070  C045  F018         	movff	_blue+1,rgbshow@bval+1
   917  000074  C042  F019         	movff	_red2,rgbshow@rval2
   918  000078  C043  F01A         	movff	_red2+1,rgbshow@rval2+1
   919  00007C  C040  F01B         	movff	_green2,rgbshow@gval2
   920  000080  C041  F01C         	movff	_green2+1,rgbshow@gval2+1
   921  000084  C03E  F01D         	movff	_blue2,rgbshow@bval2
   922  000088  C03F  F01E         	movff	_blue2+1,rgbshow@bval2+1
   923  00008C  0E00               	movlw	0
   924  00008E  6E20               	movwf	rgbshow@flag+1,c
   925  000090  0E01               	movlw	1
   926  000092  6E1F               	movwf	rgbshow@flag,c
   927  000094  ECCF  F002         	call	_rgbshow	;wreg free
   928  000098                     i2l116:
   929  000098  BE49               	btfsc	_red+1,7,c
   930  00009A  D7BC               	goto	i2l117
   931  00009C  5049               	movf	_red+1,w,c
   932  00009E  E14D               	bnz	i2l119
   933  0000A0  0E47               	movlw	71
   934  0000A2  5C48               	subwf	_red,w,c
   935  0000A4  B0D8               	btfsc	status,0,c
   936  0000A6  D049               	goto	i2l119
   937  0000A8  D7B5               	goto	i2l117
   938  0000AA                     
   939                           ;mainproject.c: 229: red=red+10;
   940  0000AA  0E0A               	movlw	10
   941  0000AC  2448               	addwf	_red,w,c
   942  0000AE  6E48               	movwf	_red,c
   943  0000B0  0E00               	movlw	0
   944  0000B2  2049               	addwfc	_red+1,w,c
   945  0000B4  6E49               	movwf	_red+1,c
   946                           
   947                           ;mainproject.c: 230: red2=red2+10;
   948  0000B6  0E0A               	movlw	10
   949  0000B8  2442               	addwf	_red2,w,c
   950  0000BA  6E42               	movwf	_red2,c
   951  0000BC  0E00               	movlw	0
   952  0000BE  2043               	addwfc	_red2+1,w,c
   953  0000C0  6E43               	movwf	_red2+1,c
   954                           
   955                           ;mainproject.c: 231: rgbshow(red,green,blue,red2,green2,blue2,4);
   956  0000C2  C048  F013         	movff	_red,rgbshow@rval
   957  0000C6  C049  F014         	movff	_red+1,rgbshow@rval+1
   958  0000CA  C046  F015         	movff	_green,rgbshow@gval
   959  0000CE  C047  F016         	movff	_green+1,rgbshow@gval+1
   960  0000D2  C044  F017         	movff	_blue,rgbshow@bval
   961  0000D6  C045  F018         	movff	_blue+1,rgbshow@bval+1
   962  0000DA  C042  F019         	movff	_red2,rgbshow@rval2
   963  0000DE  C043  F01A         	movff	_red2+1,rgbshow@rval2+1
   964  0000E2  C040  F01B         	movff	_green2,rgbshow@gval2
   965  0000E6  C041  F01C         	movff	_green2+1,rgbshow@gval2+1
   966  0000EA  C03E  F01D         	movff	_blue2,rgbshow@bval2
   967  0000EE  C03F  F01E         	movff	_blue2+1,rgbshow@bval2+1
   968  0000F2  0E00               	movlw	0
   969  0000F4  6E20               	movwf	rgbshow@flag+1,c
   970  0000F6  0E04               	movlw	4
   971  0000F8  6E1F               	movwf	rgbshow@flag,c
   972  0000FA  ECCF  F002         	call	_rgbshow	;wreg free
   973                           
   974                           ;mainproject.c: 233: rgbshow(red,green,blue,red2,green2,blue2,5);
   975  0000FE  C048  F013         	movff	_red,rgbshow@rval
   976  000102  C049  F014         	movff	_red+1,rgbshow@rval+1
   977  000106  C046  F015         	movff	_green,rgbshow@gval
   978  00010A  C047  F016         	movff	_green+1,rgbshow@gval+1
   979  00010E  C044  F017         	movff	_blue,rgbshow@bval
   980  000112  C045  F018         	movff	_blue+1,rgbshow@bval+1
   981  000116  C042  F019         	movff	_red2,rgbshow@rval2
   982  00011A  C043  F01A         	movff	_red2+1,rgbshow@rval2+1
   983  00011E  C040  F01B         	movff	_green2,rgbshow@gval2
   984  000122  C041  F01C         	movff	_green2+1,rgbshow@gval2+1
   985  000126  C03E  F01D         	movff	_blue2,rgbshow@bval2
   986  00012A  C03F  F01E         	movff	_blue2+1,rgbshow@bval2+1
   987  00012E  0E00               	movlw	0
   988  000130  6E20               	movwf	rgbshow@flag+1,c
   989  000132  0E05               	movlw	5
   990  000134  6E1F               	movwf	rgbshow@flag,c
   991  000136  ECCF  F002         	call	_rgbshow	;wreg free
   992  00013A                     i2l119:
   993  00013A  BE49               	btfsc	_red+1,7,c
   994  00013C  D7B6               	goto	i2l120
   995  00013E  5049               	movf	_red+1,w,c
   996  000140  E104               	bnz	i2u107_40
   997  000142  0E8D               	movlw	141
   998  000144  5C48               	subwf	_red,w,c
   999  000146  A0D8               	btfss	status,0,c
  1000  000148  D7B0               	goto	i2l120
  1001  00014A                     i2u107_40:
  1002                           
  1003                           ;mainproject.c: 235: }
  1004                           ;mainproject.c: 237: LATBbits.LATB4=0;
  1005  00014A  988A               	bcf	3978,4,c	;volatile
  1006                           
  1007                           ;mainproject.c: 239: LATBbits.LATB4=1;
  1008  00014C  888A               	bsf	3978,4,c	;volatile
  1009                           
  1010                           ;mainproject.c: 241: LATBbits.LATB4=0;
  1011  00014E  988A               	bcf	3978,4,c	;volatile
  1012                           
  1013                           ;mainproject.c: 244: while( green <= 70 ){
  1014  000150  D048               	goto	i2l122
  1015  000152                     
  1016                           ;mainproject.c: 245: green=green+10;
  1017  000152  0E0A               	movlw	10
  1018  000154  2446               	addwf	_green,w,c
  1019  000156  6E46               	movwf	_green,c
  1020  000158  0E00               	movlw	0
  1021  00015A  2047               	addwfc	_green+1,w,c
  1022  00015C  6E47               	movwf	_green+1,c
  1023                           
  1024                           ;mainproject.c: 246: red2=red2+10;
  1025  00015E  0E0A               	movlw	10
  1026  000160  2442               	addwf	_red2,w,c
  1027  000162  6E42               	movwf	_red2,c
  1028  000164  0E00               	movlw	0
  1029  000166  2043               	addwfc	_red2+1,w,c
  1030  000168  6E43               	movwf	_red2+1,c
  1031                           
  1032                           ;mainproject.c: 247: rgbshow(red,green,blue,red2,green2,blue2,4);
  1033  00016A  C048  F013         	movff	_red,rgbshow@rval
  1034  00016E  C049  F014         	movff	_red+1,rgbshow@rval+1
  1035  000172  C046  F015         	movff	_green,rgbshow@gval
  1036  000176  C047  F016         	movff	_green+1,rgbshow@gval+1
  1037  00017A  C044  F017         	movff	_blue,rgbshow@bval
  1038  00017E  C045  F018         	movff	_blue+1,rgbshow@bval+1
  1039  000182  C042  F019         	movff	_red2,rgbshow@rval2
  1040  000186  C043  F01A         	movff	_red2+1,rgbshow@rval2+1
  1041  00018A  C040  F01B         	movff	_green2,rgbshow@gval2
  1042  00018E  C041  F01C         	movff	_green2+1,rgbshow@gval2+1
  1043  000192  C03E  F01D         	movff	_blue2,rgbshow@bval2
  1044  000196  C03F  F01E         	movff	_blue2+1,rgbshow@bval2+1
  1045  00019A  0E00               	movlw	0
  1046  00019C  6E20               	movwf	rgbshow@flag+1,c
  1047  00019E  0E04               	movlw	4
  1048  0001A0  6E1F               	movwf	rgbshow@flag,c
  1049  0001A2  ECCF  F002         	call	_rgbshow	;wreg free
  1050                           
  1051                           ;mainproject.c: 249: rgbshow(red,green,blue,red2,green2,blue2,5);
  1052  0001A6  C048  F013         	movff	_red,rgbshow@rval
  1053  0001AA  C049  F014         	movff	_red+1,rgbshow@rval+1
  1054  0001AE  C046  F015         	movff	_green,rgbshow@gval
  1055  0001B2  C047  F016         	movff	_green+1,rgbshow@gval+1
  1056  0001B6  C044  F017         	movff	_blue,rgbshow@bval
  1057  0001BA  C045  F018         	movff	_blue+1,rgbshow@bval+1
  1058  0001BE  C042  F019         	movff	_red2,rgbshow@rval2
  1059  0001C2  C043  F01A         	movff	_red2+1,rgbshow@rval2+1
  1060  0001C6  C040  F01B         	movff	_green2,rgbshow@gval2
  1061  0001CA  C041  F01C         	movff	_green2+1,rgbshow@gval2+1
  1062  0001CE  C03E  F01D         	movff	_blue2,rgbshow@bval2
  1063  0001D2  C03F  F01E         	movff	_blue2+1,rgbshow@bval2+1
  1064  0001D6  0E00               	movlw	0
  1065  0001D8  6E20               	movwf	rgbshow@flag+1,c
  1066  0001DA  0E05               	movlw	5
  1067  0001DC  6E1F               	movwf	rgbshow@flag,c
  1068  0001DE  ECCF  F002         	call	_rgbshow	;wreg free
  1069  0001E2                     i2l122:
  1070  0001E2  BE47               	btfsc	_green+1,7,c
  1071  0001E4  D7B6               	goto	i2l123
  1072  0001E6  5047               	movf	_green+1,w,c
  1073  0001E8  E104               	bnz	i2l1321
  1074  0001EA  0E47               	movlw	71
  1075  0001EC  5C46               	subwf	_green,w,c
  1076  0001EE  A0D8               	btfss	status,0,c
  1077  0001F0  D7B0               	goto	i2l123
  1078  0001F2                     i2l1321:
  1079                           
  1080                           ;mainproject.c: 251: }
  1081                           ;mainproject.c: 371: zerorgb();
  1082  0001F2  EC7A  F003         	call	_zerorgb	;wreg free
  1083  0001F6  0012               	return		;funcret
  1084  0001F8                     __end_of_rgbstart:
  1085                           	opt stack 0
  1086                           pclatu	equ	0xFFB
  1087                           pclath	equ	0xFFA
  1088                           tblptru	equ	0xFF8
  1089                           tblptrh	equ	0xFF7
  1090                           tblptrl	equ	0xFF6
  1091                           tablat	equ	0xFF5
  1092                           prodh	equ	0xFF4
  1093                           prodl	equ	0xFF3
  1094                           intcon	equ	0xFF2
  1095                           intcon2	equ	0xFF1
  1096                           postinc0	equ	0xFEE
  1097                           fsr0h	equ	0xFEA
  1098                           fsr0l	equ	0xFE9
  1099                           wreg	equ	0xFE8
  1100                           fsr1h	equ	0xFE2
  1101                           fsr1l	equ	0xFE1
  1102                           fsr2h	equ	0xFDA
  1103                           fsr2l	equ	0xFD9
  1104                           status	equ	0xFD8
  1105                           
  1106 ;; *************** function _zerorgb *****************
  1107 ;; Defined at:
  1108 ;;		line 198 in file "mainproject.c"
  1109 ;; Parameters:    Size  Location     Type
  1110 ;;		None
  1111 ;; Auto vars:     Size  Location     Type
  1112 ;;		None
  1113 ;; Return value:  Size  Location     Type
  1114 ;;                  1    wreg      void 
  1115 ;; Registers used:
  1116 ;;		wreg, status,2
  1117 ;; Tracked objects:
  1118 ;;		On entry : 0/0
  1119 ;;		On exit  : 0/0
  1120 ;;		Unchanged: 0/0
  1121 ;; Data sizes:     COMRAM   BANK0   BANK1   BANK2   BANK3   BANK4   BANK5
  1122 ;;      Params:         0       0       0       0       0       0       0
  1123 ;;      Locals:         0       0       0       0       0       0       0
  1124 ;;      Temps:          0       0       0       0       0       0       0
  1125 ;;      Totals:         0       0       0       0       0       0       0
  1126 ;;Total ram usage:        0 bytes
  1127 ;; Hardware stack levels used:    1
  1128 ;; This function calls:
  1129 ;;		Nothing
  1130 ;; This function is called by:
  1131 ;;		_rgbstart
  1132 ;; This function uses a non-reentrant model
  1133 ;;
  1134                           
  1135                           	psect	text6
  1136  0006F4                     __ptext6:
  1137                           	opt stack 0
  1138  0006F4                     _zerorgb:
  1139                           	opt stack 26
  1140                           
  1141                           ;mainproject.c: 199: LATCbits.LATC0=0;
  1142                           
  1143                           ;incstack = 0
  1144  0006F4  908B               	bcf	3979,0,c	;volatile
  1145                           
  1146                           ;mainproject.c: 200: LATCbits.LATC1=0;
  1147  0006F6  928B               	bcf	3979,1,c	;volatile
  1148                           
  1149                           ;mainproject.c: 201: LATCbits.LATC2=0;
  1150  0006F8  948B               	bcf	3979,2,c	;volatile
  1151                           
  1152                           ;mainproject.c: 202: LATCbits.LATC3=0;
  1153  0006FA  968B               	bcf	3979,3,c	;volatile
  1154                           
  1155                           ;mainproject.c: 203: LATDbits.LATD0=0;
  1156  0006FC  908C               	bcf	3980,0,c	;volatile
  1157                           
  1158                           ;mainproject.c: 204: LATDbits.LATD1=0;
  1159  0006FE  928C               	bcf	3980,1,c	;volatile
  1160                           
  1161                           ;mainproject.c: 205: LATCbits.LATC7=0;
  1162  000700  9E8B               	bcf	3979,7,c	;volatile
  1163                           
  1164                           ;mainproject.c: 206: LATCbits.LATC6=0;
  1165  000702  9C8B               	bcf	3979,6,c	;volatile
  1166                           
  1167                           ;mainproject.c: 207: LATCbits.LATC5=0;
  1168  000704  9A8B               	bcf	3979,5,c	;volatile
  1169                           
  1170                           ;mainproject.c: 208: LATCbits.LATC4=0;
  1171  000706  988B               	bcf	3979,4,c	;volatile
  1172                           
  1173                           ;mainproject.c: 209: LATDbits.LATD3=0;
  1174  000708  968C               	bcf	3980,3,c	;volatile
  1175                           
  1176                           ;mainproject.c: 210: LATDbits.LATD2=0;
  1177  00070A  948C               	bcf	3980,2,c	;volatile
  1178                           
  1179                           ;mainproject.c: 211: red=0;
  1180  00070C  0E00               	movlw	0
  1181  00070E  6E49               	movwf	_red+1,c
  1182  000710  0E00               	movlw	0
  1183  000712  6E48               	movwf	_red,c
  1184                           
  1185                           ;mainproject.c: 212: green=0;
  1186  000714  0E00               	movlw	0
  1187  000716  6E47               	movwf	_green+1,c
  1188  000718  0E00               	movlw	0
  1189  00071A  6E46               	movwf	_green,c
  1190                           
  1191                           ;mainproject.c: 213: blue=0;
  1192  00071C  0E00               	movlw	0
  1193  00071E  6E45               	movwf	_blue+1,c
  1194  000720  0E00               	movlw	0
  1195  000722  6E44               	movwf	_blue,c
  1196                           
  1197                           ;mainproject.c: 214: red2=0;
  1198  000724  0E00               	movlw	0
  1199  000726  6E43               	movwf	_red2+1,c
  1200  000728  0E00               	movlw	0
  1201  00072A  6E42               	movwf	_red2,c
  1202                           
  1203                           ;mainproject.c: 215: green2=0;
  1204  00072C  0E00               	movlw	0
  1205  00072E  6E41               	movwf	_green2+1,c
  1206  000730  0E00               	movlw	0
  1207  000732  6E40               	movwf	_green2,c
  1208                           
  1209                           ;mainproject.c: 216: blue2=0;
  1210  000734  0E00               	movlw	0
  1211  000736  6E3F               	movwf	_blue2+1,c
  1212  000738  0E00               	movlw	0
  1213  00073A  6E3E               	movwf	_blue2,c
  1214  00073C  0012               	return		;funcret
  1215  00073E                     __end_of_zerorgb:
  1216                           	opt stack 0
  1217                           pclatu	equ	0xFFB
  1218                           pclath	equ	0xFFA
  1219                           tblptru	equ	0xFF8
  1220                           tblptrh	equ	0xFF7
  1221                           tblptrl	equ	0xFF6
  1222                           tablat	equ	0xFF5
  1223                           prodh	equ	0xFF4
  1224                           prodl	equ	0xFF3
  1225                           intcon	equ	0xFF2
  1226                           intcon2	equ	0xFF1
  1227                           postinc0	equ	0xFEE
  1228                           fsr0h	equ	0xFEA
  1229                           fsr0l	equ	0xFE9
  1230                           wreg	equ	0xFE8
  1231                           fsr1h	equ	0xFE2
  1232                           fsr1l	equ	0xFE1
  1233                           fsr2h	equ	0xFDA
  1234                           fsr2l	equ	0xFD9
  1235                           status	equ	0xFD8
  1236                           
  1237 ;; *************** function _rgbshow *****************
  1238 ;; Defined at:
  1239 ;;		line 183 in file "mainproject.c"
  1240 ;; Parameters:    Size  Location     Type
  1241 ;;  rval            2   18[COMRAM] int 
  1242 ;;  gval            2   20[COMRAM] int 
  1243 ;;  bval            2   22[COMRAM] int 
  1244 ;;  rval2           2   24[COMRAM] int 
  1245 ;;  gval2           2   26[COMRAM] int 
  1246 ;;  bval2           2   28[COMRAM] int 
  1247 ;;  flag            2   30[COMRAM] int 
  1248 ;; Auto vars:     Size  Location     Type
  1249 ;;  i               2   32[COMRAM] int 
  1250 ;; Return value:  Size  Location     Type
  1251 ;;                  1    wreg      void 
  1252 ;; Registers used:
  1253 ;;		wreg, status,2, status,0, cstack
  1254 ;; Tracked objects:
  1255 ;;		On entry : 0/0
  1256 ;;		On exit  : 0/0
  1257 ;;		Unchanged: 0/0
  1258 ;; Data sizes:     COMRAM   BANK0   BANK1   BANK2   BANK3   BANK4   BANK5
  1259 ;;      Params:        14       0       0       0       0       0       0
  1260 ;;      Locals:         2       0       0       0       0       0       0
  1261 ;;      Temps:          0       0       0       0       0       0       0
  1262 ;;      Totals:        16       0       0       0       0       0       0
  1263 ;;Total ram usage:       16 bytes
  1264 ;; Hardware stack levels used:    1
  1265 ;; Hardware stack levels required when called:    1
  1266 ;; This function calls:
  1267 ;;		_rgbshowone
  1268 ;;		_rgbshowsix
  1269 ;; This function is called by:
  1270 ;;		_rgbstart
  1271 ;; This function uses a non-reentrant model
  1272 ;;
  1273                           
  1274                           	psect	text7
  1275  00059E                     __ptext7:
  1276                           	opt stack 0
  1277  00059E                     _rgbshow:
  1278                           	opt stack 25
  1279                           
  1280                           ;mainproject.c: 185: int i=60;
  1281                           
  1282                           ;incstack = 0
  1283  00059E  0E00               	movlw	0
  1284  0005A0  6E22               	movwf	rgbshow@i+1,c
  1285  0005A2  0E3C               	movlw	60
  1286  0005A4  6E21               	movwf	rgbshow@i,c
  1287                           
  1288                           ;mainproject.c: 186: if(flag<4){
  1289  0005A6  BE20               	btfsc	rgbshow@flag+1,7,c
  1290  0005A8  D019               	goto	i2l103
  1291  0005AA  5020               	movf	rgbshow@flag+1,w,c
  1292  0005AC  E13E               	bnz	i2l1283
  1293  0005AE  0E04               	movlw	4
  1294  0005B0  5C1F               	subwf	rgbshow@flag,w,c
  1295  0005B2  A0D8               	btfss	status,0,c
  1296  0005B4  D013               	goto	i2l103
  1297  0005B6  D039               	goto	i2l107
  1298  0005B8                     i2l1277:
  1299                           
  1300                           ;mainproject.c: 188: rgbshowone(rval,gval,bval,flag);
  1301  0005B8  C013  F001         	movff	rgbshow@rval,rgbshowone@rval
  1302  0005BC  C014  F002         	movff	rgbshow@rval+1,rgbshowone@rval+1
  1303  0005C0  C015  F003         	movff	rgbshow@gval,rgbshowone@gval
  1304  0005C4  C016  F004         	movff	rgbshow@gval+1,rgbshowone@gval+1
  1305  0005C8  C017  F005         	movff	rgbshow@bval,rgbshowone@bval
  1306  0005CC  C018  F006         	movff	rgbshow@bval+1,rgbshowone@bval+1
  1307  0005D0  C01F  F007         	movff	rgbshow@flag,rgbshowone@flag
  1308  0005D4  C020  F008         	movff	rgbshow@flag+1,rgbshowone@flag+1
  1309  0005D8  ECFC  F000         	call	_rgbshowone	;wreg free
  1310  0005DC                     i2l103:
  1311  0005DC  0621               	decf	rgbshow@i,f,c
  1312  0005DE  A0D8               	btfss	status,0,c
  1313  0005E0  0622               	decf	rgbshow@i+1,f,c
  1314  0005E2  2821               	incf	rgbshow@i,w,c
  1315  0005E4  E1E9               	bnz	i2l1277
  1316  0005E6  2822               	incf	rgbshow@i+1,w,c
  1317  0005E8  B4D8               	btfsc	status,2,c
  1318  0005EA  0012               	return	
  1319  0005EC  D7E5               	goto	i2l104
  1320  0005EE                     i2l1281:
  1321                           
  1322                           ;mainproject.c: 193: rgbshowsix(rval,gval,bval,rval2,gval2,bval2,flag);
  1323  0005EE  C013  F001         	movff	rgbshow@rval,rgbshowsix@rval
  1324  0005F2  C014  F002         	movff	rgbshow@rval+1,rgbshowsix@rval+1
  1325  0005F6  C015  F003         	movff	rgbshow@gval,rgbshowsix@gval
  1326  0005FA  C016  F004         	movff	rgbshow@gval+1,rgbshowsix@gval+1
  1327  0005FE  C017  F005         	movff	rgbshow@bval,rgbshowsix@bval
  1328  000602  C018  F006         	movff	rgbshow@bval+1,rgbshowsix@bval+1
  1329  000606  C019  F007         	movff	rgbshow@rval2,rgbshowsix@rval2
  1330  00060A  C01A  F008         	movff	rgbshow@rval2+1,rgbshowsix@rval2+1
  1331  00060E  C01B  F009         	movff	rgbshow@gval2,rgbshowsix@gval2
  1332  000612  C01C  F00A         	movff	rgbshow@gval2+1,rgbshowsix@gval2+1
  1333  000616  C01D  F00B         	movff	rgbshow@bval2,rgbshowsix@bval2
  1334  00061A  C01E  F00C         	movff	rgbshow@bval2+1,rgbshowsix@bval2+1
  1335  00061E  C01F  F00D         	movff	rgbshow@flag,rgbshowsix@flag
  1336  000622  C020  F00E         	movff	rgbshow@flag+1,rgbshowsix@flag+1
  1337  000626  ECD5  F001         	call	_rgbshowsix	;wreg free
  1338  00062A                     i2l107:
  1339  00062A                     i2l1283:
  1340  00062A  0621               	decf	rgbshow@i,f,c
  1341  00062C  A0D8               	btfss	status,0,c
  1342  00062E  0622               	decf	rgbshow@i+1,f,c
  1343  000630  2821               	incf	rgbshow@i,w,c
  1344  000632  E1DD               	bnz	i2l1281
  1345  000634  2822               	incf	rgbshow@i+1,w,c
  1346  000636  B4D8               	btfsc	status,2,c
  1347  000638  0012               	return	
  1348  00063A  D7D9               	goto	i2l108
  1349  00063C                     __end_of_rgbshow:
  1350                           	opt stack 0
  1351                           pclatu	equ	0xFFB
  1352                           pclath	equ	0xFFA
  1353                           tblptru	equ	0xFF8
  1354                           tblptrh	equ	0xFF7
  1355                           tblptrl	equ	0xFF6
  1356                           tablat	equ	0xFF5
  1357                           prodh	equ	0xFF4
  1358                           prodl	equ	0xFF3
  1359                           intcon	equ	0xFF2
  1360                           intcon2	equ	0xFF1
  1361                           postinc0	equ	0xFEE
  1362                           fsr0h	equ	0xFEA
  1363                           fsr0l	equ	0xFE9
  1364                           wreg	equ	0xFE8
  1365                           fsr1h	equ	0xFE2
  1366                           fsr1l	equ	0xFE1
  1367                           fsr2h	equ	0xFDA
  1368                           fsr2l	equ	0xFD9
  1369                           status	equ	0xFD8
  1370                           
  1371 ;; *************** function _rgbshowsix *****************
  1372 ;; Defined at:
  1373 ;;		line 133 in file "mainproject.c"
  1374 ;; Parameters:    Size  Location     Type
  1375 ;;  rval            2    0[COMRAM] int 
  1376 ;;  gval            2    2[COMRAM] int 
  1377 ;;  bval            2    4[COMRAM] int 
  1378 ;;  rval2           2    6[COMRAM] int 
  1379 ;;  gval2           2    8[COMRAM] int 
  1380 ;;  bval2           2   10[COMRAM] int 
  1381 ;;  flag            2   12[COMRAM] int 
  1382 ;; Auto vars:     Size  Location     Type
  1383 ;;  i               2   16[COMRAM] int 
  1384 ;;  i               2   14[COMRAM] int 
  1385 ;; Return value:  Size  Location     Type
  1386 ;;                  1    wreg      void 
  1387 ;; Registers used:
  1388 ;;		wreg, status,2, status,0
  1389 ;; Tracked objects:
  1390 ;;		On entry : 0/0
  1391 ;;		On exit  : 0/0
  1392 ;;		Unchanged: 0/0
  1393 ;; Data sizes:     COMRAM   BANK0   BANK1   BANK2   BANK3   BANK4   BANK5
  1394 ;;      Params:        14       0       0       0       0       0       0
  1395 ;;      Locals:         4       0       0       0       0       0       0
  1396 ;;      Temps:          0       0       0       0       0       0       0
  1397 ;;      Totals:        18       0       0       0       0       0       0
  1398 ;;Total ram usage:       18 bytes
  1399 ;; Hardware stack levels used:    1
  1400 ;; This function calls:
  1401 ;;		Nothing
  1402 ;; This function is called by:
  1403 ;;		_rgbshow
  1404 ;; This function uses a non-reentrant model
  1405 ;;
  1406                           
  1407                           	psect	text8
  1408  0003AA                     __ptext8:
  1409                           	opt stack 0
  1410  0003AA                     _rgbshowsix:
  1411                           	opt stack 25
  1412                           
  1413                           ;mainproject.c: 135: if(flag==4){
  1414                           
  1415                           ;incstack = 0
  1416  0003AA  0E04               	movlw	4
  1417  0003AC  180D               	xorwf	rgbshowsix@flag,w,c
  1418  0003AE  100E               	iorwf	rgbshowsix@flag+1,w,c
  1419  0003B0  A4D8               	btfss	status,2,c
  1420  0003B2  D051               	goto	i2l80
  1421                           
  1422                           ;mainproject.c: 136: LATCbits.LATC0=1;
  1423  0003B4  808B               	bsf	3979,0,c	;volatile
  1424                           
  1425                           ;mainproject.c: 137: LATCbits.LATC1=1;
  1426  0003B6  828B               	bsf	3979,1,c	;volatile
  1427                           
  1428                           ;mainproject.c: 138: LATCbits.LATC2=1;
  1429  0003B8  848B               	bsf	3979,2,c	;volatile
  1430                           
  1431                           ;mainproject.c: 139: LATCbits.LATC3=0;
  1432  0003BA  968B               	bcf	3979,3,c	;volatile
  1433                           
  1434                           ;mainproject.c: 140: LATDbits.LATD0=0;
  1435  0003BC  908C               	bcf	3980,0,c	;volatile
  1436                           
  1437                           ;mainproject.c: 141: LATDbits.LATD1=0;
  1438  0003BE  928C               	bcf	3980,1,c	;volatile
  1439                           
  1440                           ;mainproject.c: 142: LATCbits.LATC7=1;
  1441  0003C0  8E8B               	bsf	3979,7,c	;volatile
  1442                           
  1443                           ;mainproject.c: 143: LATCbits.LATC6=1;
  1444  0003C2  8C8B               	bsf	3979,6,c	;volatile
  1445                           
  1446                           ;mainproject.c: 144: LATCbits.LATC5=1;
  1447  0003C4  8A8B               	bsf	3979,5,c	;volatile
  1448                           
  1449                           ;mainproject.c: 145: LATCbits.LATC4=0;
  1450  0003C6  988B               	bcf	3979,4,c	;volatile
  1451                           
  1452                           ;mainproject.c: 146: LATDbits.LATD3=0;
  1453  0003C8  968C               	bcf	3980,3,c	;volatile
  1454                           
  1455                           ;mainproject.c: 147: LATDbits.LATD2=0;
  1456  0003CA  948C               	bcf	3980,2,c	;volatile
  1457                           
  1458                           ;mainproject.c: 149: for(int i=0;i<140;i++){
  1459  0003CC  0E00               	movlw	0
  1460  0003CE  6E10               	movwf	rgbshowsix@i+1,c
  1461  0003D0  0E00               	movlw	0
  1462  0003D2  6E0F               	movwf	rgbshowsix@i,c
  1463  0003D4  BE10               	btfsc	rgbshowsix@i+1,7,c
  1464  0003D6  D008               	goto	i2l81
  1465  0003D8  5010               	movf	rgbshowsix@i+1,w,c
  1466  0003DA  E105               	bnz	i2u83_40
  1467  0003DC  0E8C               	movlw	140
  1468  0003DE  5C0F               	subwf	rgbshowsix@i,w,c
  1469  0003E0  B0D8               	btfsc	status,0,c
  1470  0003E2  0012               	return	
  1471  0003E4  D001               	goto	i2l81
  1472  0003E6                     i2u83_40:
  1473  0003E6  0012               	return	
  1474  0003E8                     i2l81:
  1475                           
  1476                           ;mainproject.c: 150: if((rval--)==0) LATCbits.LATC0=0;
  1477  0003E8  0601               	decf	rgbshowsix@rval,f,c
  1478  0003EA  A0D8               	btfss	status,0,c
  1479  0003EC  0602               	decf	rgbshowsix@rval+1,f,c
  1480  0003EE  2801               	incf	rgbshowsix@rval,w,c
  1481  0003F0  E103               	bnz	i2l1209
  1482  0003F2  2802               	incf	rgbshowsix@rval+1,w,c
  1483  0003F4  B4D8               	btfsc	status,2,c
  1484  0003F6  908B               	bcf	3979,0,c	;volatile
  1485  0003F8                     i2l1209:
  1486                           
  1487                           ;mainproject.c: 151: if((gval--)==0) LATCbits.LATC1=0;
  1488  0003F8  0603               	decf	rgbshowsix@gval,f,c
  1489  0003FA  A0D8               	btfss	status,0,c
  1490  0003FC  0604               	decf	rgbshowsix@gval+1,f,c
  1491  0003FE  2803               	incf	rgbshowsix@gval,w,c
  1492  000400  E103               	bnz	i2l1213
  1493  000402  2804               	incf	rgbshowsix@gval+1,w,c
  1494  000404  B4D8               	btfsc	status,2,c
  1495  000406  928B               	bcf	3979,1,c	;volatile
  1496  000408                     i2l1213:
  1497                           
  1498                           ;mainproject.c: 152: if((bval--)==0) LATCbits.LATC2=0;
  1499  000408  0605               	decf	rgbshowsix@bval,f,c
  1500  00040A  A0D8               	btfss	status,0,c
  1501  00040C  0606               	decf	rgbshowsix@bval+1,f,c
  1502  00040E  2805               	incf	rgbshowsix@bval,w,c
  1503  000410  E103               	bnz	i2l1217
  1504  000412  2806               	incf	rgbshowsix@bval+1,w,c
  1505  000414  B4D8               	btfsc	status,2,c
  1506  000416  948B               	bcf	3979,2,c	;volatile
  1507  000418                     i2l1217:
  1508                           
  1509                           ;mainproject.c: 153: if((rval2--)==0) LATCbits.LATC7=0;
  1510  000418  0607               	decf	rgbshowsix@rval2,f,c
  1511  00041A  A0D8               	btfss	status,0,c
  1512  00041C  0608               	decf	rgbshowsix@rval2+1,f,c
  1513  00041E  2807               	incf	rgbshowsix@rval2,w,c
  1514  000420  E103               	bnz	i2l1221
  1515  000422  2808               	incf	rgbshowsix@rval2+1,w,c
  1516  000424  B4D8               	btfsc	status,2,c
  1517  000426  9E8B               	bcf	3979,7,c	;volatile
  1518  000428                     i2l1221:
  1519                           
  1520                           ;mainproject.c: 154: if((gval2--)==0) LATCbits.LATC6=0;
  1521  000428  0609               	decf	rgbshowsix@gval2,f,c
  1522  00042A  A0D8               	btfss	status,0,c
  1523  00042C  060A               	decf	rgbshowsix@gval2+1,f,c
  1524  00042E  2809               	incf	rgbshowsix@gval2,w,c
  1525  000430  E103               	bnz	i2l1225
  1526  000432  280A               	incf	rgbshowsix@gval2+1,w,c
  1527  000434  B4D8               	btfsc	status,2,c
  1528  000436  9C8B               	bcf	3979,6,c	;volatile
  1529  000438                     i2l1225:
  1530                           
  1531                           ;mainproject.c: 155: if((bval2--)==0) LATCbits.LATC5=0;
  1532  000438  060B               	decf	rgbshowsix@bval2,f,c
  1533  00043A  A0D8               	btfss	status,0,c
  1534  00043C  060C               	decf	rgbshowsix@bval2+1,f,c
  1535  00043E  280B               	incf	rgbshowsix@bval2,w,c
  1536  000440  E103               	bnz	i2l1229
  1537  000442  280C               	incf	rgbshowsix@bval2+1,w,c
  1538  000444  B4D8               	btfsc	status,2,c
  1539  000446  9A8B               	bcf	3979,5,c	;volatile
  1540  000448                     i2l1229:
  1541  000448  4A0F               	infsnz	rgbshowsix@i,f,c
  1542  00044A  2A10               	incf	rgbshowsix@i+1,f,c
  1543  00044C  BE10               	btfsc	rgbshowsix@i+1,7,c
  1544  00044E  D7CC               	goto	i2l81
  1545  000450  5010               	movf	rgbshowsix@i+1,w,c
  1546  000452  E151               	bnz	i2l89
  1547  000454  D7C3               	goto	L1
  1548  000456                     i2l80:
  1549                           
  1550                           ;mainproject.c: 159: else if(flag==5){
  1551  000456  0E05               	movlw	5
  1552  000458  180D               	xorwf	rgbshowsix@flag,w,c
  1553  00045A  100E               	iorwf	rgbshowsix@flag+1,w,c
  1554  00045C  A4D8               	btfss	status,2,c
  1555  00045E  0012               	return	
  1556                           
  1557                           ;mainproject.c: 160: LATCbits.LATC0=0;
  1558  000460  908B               	bcf	3979,0,c	;volatile
  1559                           
  1560                           ;mainproject.c: 161: LATCbits.LATC1=0;
  1561  000462  928B               	bcf	3979,1,c	;volatile
  1562                           
  1563                           ;mainproject.c: 162: LATCbits.LATC2=0;
  1564  000464  948B               	bcf	3979,2,c	;volatile
  1565                           
  1566                           ;mainproject.c: 163: LATCbits.LATC3=1;
  1567  000466  868B               	bsf	3979,3,c	;volatile
  1568                           
  1569                           ;mainproject.c: 164: LATDbits.LATD0=1;
  1570  000468  808C               	bsf	3980,0,c	;volatile
  1571                           
  1572                           ;mainproject.c: 165: LATDbits.LATD1=1;
  1573  00046A  828C               	bsf	3980,1,c	;volatile
  1574                           
  1575                           ;mainproject.c: 166: LATCbits.LATC7=0;
  1576  00046C  9E8B               	bcf	3979,7,c	;volatile
  1577                           
  1578                           ;mainproject.c: 167: LATCbits.LATC6=0;
  1579  00046E  9C8B               	bcf	3979,6,c	;volatile
  1580                           
  1581                           ;mainproject.c: 168: LATCbits.LATC5=0;
  1582  000470  9A8B               	bcf	3979,5,c	;volatile
  1583                           
  1584                           ;mainproject.c: 169: LATCbits.LATC4=1;
  1585  000472  888B               	bsf	3979,4,c	;volatile
  1586                           
  1587                           ;mainproject.c: 170: LATDbits.LATD3=1;
  1588  000474  868C               	bsf	3980,3,c	;volatile
  1589                           
  1590                           ;mainproject.c: 171: LATDbits.LATD2=1;
  1591  000476  848C               	bsf	3980,2,c	;volatile
  1592                           
  1593                           ;mainproject.c: 173: for(int i=0;i<140;i++){
  1594  000478  0E00               	movlw	0
  1595  00047A  6E12               	movwf	rgbshowsix@i_541+1,c
  1596  00047C  0E00               	movlw	0
  1597  00047E  6E11               	movwf	rgbshowsix@i_541,c
  1598  000480                     i2l1239:
  1599  000480  BE12               	btfsc	rgbshowsix@i_541+1,7,c
  1600  000482  D006               	goto	i2l91
  1601  000484  5012               	movf	rgbshowsix@i_541+1,w,c
  1602  000486  E137               	bnz	i2l99
  1603  000488  0E8C               	movlw	140
  1604  00048A  5C11               	subwf	rgbshowsix@i_541,w,c
  1605  00048C  B0D8               	btfsc	status,0,c
  1606  00048E  0012               	return	
  1607  000490                     i2l91:
  1608                           
  1609                           ;mainproject.c: 174: if((rval--)==0) LATCbits.LATC3=0;
  1610  000490  0601               	decf	rgbshowsix@rval,f,c
  1611  000492  A0D8               	btfss	status,0,c
  1612  000494  0602               	decf	rgbshowsix@rval+1,f,c
  1613  000496  2801               	incf	rgbshowsix@rval,w,c
  1614  000498  E103               	bnz	i2l1247
  1615  00049A  2802               	incf	rgbshowsix@rval+1,w,c
  1616  00049C  B4D8               	btfsc	status,2,c
  1617  00049E  968B               	bcf	3979,3,c	;volatile
  1618  0004A0                     i2l1247:
  1619                           
  1620                           ;mainproject.c: 175: if((gval--)==0) LATDbits.LATD0=0;
  1621  0004A0  0603               	decf	rgbshowsix@gval,f,c
  1622  0004A2  A0D8               	btfss	status,0,c
  1623  0004A4  0604               	decf	rgbshowsix@gval+1,f,c
  1624  0004A6  2803               	incf	rgbshowsix@gval,w,c
  1625  0004A8  E103               	bnz	i2l1251
  1626  0004AA  2804               	incf	rgbshowsix@gval+1,w,c
  1627  0004AC  B4D8               	btfsc	status,2,c
  1628  0004AE  908C               	bcf	3980,0,c	;volatile
  1629  0004B0                     i2l1251:
  1630                           
  1631                           ;mainproject.c: 176: if((bval--)==0) LATDbits.LATD1=0;
  1632  0004B0  0605               	decf	rgbshowsix@bval,f,c
  1633  0004B2  A0D8               	btfss	status,0,c
  1634  0004B4  0606               	decf	rgbshowsix@bval+1,f,c
  1635  0004B6  2805               	incf	rgbshowsix@bval,w,c
  1636  0004B8  E103               	bnz	i2l1255
  1637  0004BA  2806               	incf	rgbshowsix@bval+1,w,c
  1638  0004BC  B4D8               	btfsc	status,2,c
  1639  0004BE  928C               	bcf	3980,1,c	;volatile
  1640  0004C0                     i2l1255:
  1641                           
  1642                           ;mainproject.c: 177: if((rval2--)==0) LATCbits.LATC4=0;
  1643  0004C0  0607               	decf	rgbshowsix@rval2,f,c
  1644  0004C2  A0D8               	btfss	status,0,c
  1645  0004C4  0608               	decf	rgbshowsix@rval2+1,f,c
  1646  0004C6  2807               	incf	rgbshowsix@rval2,w,c
  1647  0004C8  E103               	bnz	i2l1259
  1648  0004CA  2808               	incf	rgbshowsix@rval2+1,w,c
  1649  0004CC  B4D8               	btfsc	status,2,c
  1650  0004CE  988B               	bcf	3979,4,c	;volatile
  1651  0004D0                     i2l1259:
  1652                           
  1653                           ;mainproject.c: 178: if((gval2--)==0) LATDbits.LATD3=0;
  1654  0004D0  0609               	decf	rgbshowsix@gval2,f,c
  1655  0004D2  A0D8               	btfss	status,0,c
  1656  0004D4  060A               	decf	rgbshowsix@gval2+1,f,c
  1657  0004D6  2809               	incf	rgbshowsix@gval2,w,c
  1658  0004D8  E103               	bnz	i2l1263
  1659  0004DA  280A               	incf	rgbshowsix@gval2+1,w,c
  1660  0004DC  B4D8               	btfsc	status,2,c
  1661  0004DE  968C               	bcf	3980,3,c	;volatile
  1662  0004E0                     i2l1263:
  1663                           
  1664                           ;mainproject.c: 179: if((bval2--)==0) LATDbits.LATD2=0;
  1665  0004E0  060B               	decf	rgbshowsix@bval2,f,c
  1666  0004E2  A0D8               	btfss	status,0,c
  1667  0004E4  060C               	decf	rgbshowsix@bval2+1,f,c
  1668  0004E6  280B               	incf	rgbshowsix@bval2,w,c
  1669  0004E8  E103               	bnz	i2l1267
  1670  0004EA  280C               	incf	rgbshowsix@bval2+1,w,c
  1671  0004EC  B4D8               	btfsc	status,2,c
  1672  0004EE  948C               	bcf	3980,2,c	;volatile
  1673  0004F0                     i2l1267:
  1674  0004F0  4A11               	infsnz	rgbshowsix@i_541,f,c
  1675  0004F2  2A12               	incf	rgbshowsix@i_541+1,f,c
  1676  0004F4  D7C5               	goto	i2l1239
  1677  0004F6                     i2l89:
  1678  0004F6                     i2l99:
  1679  0004F6  0012               	return		;funcret
  1680  0004F8                     __end_of_rgbshowsix:
  1681                           	opt stack 0
  1682                           pclatu	equ	0xFFB
  1683                           pclath	equ	0xFFA
  1684                           tblptru	equ	0xFF8
  1685                           tblptrh	equ	0xFF7
  1686                           tblptrl	equ	0xFF6
  1687                           tablat	equ	0xFF5
  1688                           prodh	equ	0xFF4
  1689                           prodl	equ	0xFF3
  1690                           intcon	equ	0xFF2
  1691                           intcon2	equ	0xFF1
  1692                           postinc0	equ	0xFEE
  1693                           fsr0h	equ	0xFEA
  1694                           fsr0l	equ	0xFE9
  1695                           wreg	equ	0xFE8
  1696                           fsr1h	equ	0xFE2
  1697                           fsr1l	equ	0xFE1
  1698                           fsr2h	equ	0xFDA
  1699                           fsr2l	equ	0xFD9
  1700                           status	equ	0xFD8
  1701                           
  1702 ;; *************** function _rgbshowone *****************
  1703 ;; Defined at:
  1704 ;;		line 74 in file "mainproject.c"
  1705 ;; Parameters:    Size  Location     Type
  1706 ;;  rval            2    0[COMRAM] int 
  1707 ;;  gval            2    2[COMRAM] int 
  1708 ;;  bval            2    4[COMRAM] int 
  1709 ;;  flag            2    6[COMRAM] int 
  1710 ;; Auto vars:     Size  Location     Type
  1711 ;;  i               2   14[COMRAM] int 
  1712 ;;  i               2   12[COMRAM] int 
  1713 ;;  i               2   10[COMRAM] int 
  1714 ;;  i               2    8[COMRAM] int 
  1715 ;; Return value:  Size  Location     Type
  1716 ;;                  1    wreg      void 
  1717 ;; Registers used:
  1718 ;;		wreg, status,2, status,0
  1719 ;; Tracked objects:
  1720 ;;		On entry : 0/0
  1721 ;;		On exit  : 0/0
  1722 ;;		Unchanged: 0/0
  1723 ;; Data sizes:     COMRAM   BANK0   BANK1   BANK2   BANK3   BANK4   BANK5
  1724 ;;      Params:         8       0       0       0       0       0       0
  1725 ;;      Locals:         8       0       0       0       0       0       0
  1726 ;;      Temps:          0       0       0       0       0       0       0
  1727 ;;      Totals:        16       0       0       0       0       0       0
  1728 ;;Total ram usage:       16 bytes
  1729 ;; Hardware stack levels used:    1
  1730 ;; This function calls:
  1731 ;;		Nothing
  1732 ;; This function is called by:
  1733 ;;		_rgbshow
  1734 ;; This function uses a non-reentrant model
  1735 ;;
  1736                           
  1737                           	psect	text9
  1738  0001F8                     __ptext9:
  1739                           	opt stack 0
  1740  0001F8                     _rgbshowone:
  1741                           	opt stack 25
  1742                           
  1743                           ;mainproject.c: 75: if(flag==0){
  1744                           
  1745                           ;incstack = 0
  1746  0001F8  5007               	movf	rgbshowone@flag,w,c
  1747  0001FA  1008               	iorwf	rgbshowone@flag+1,w,c
  1748  0001FC  A4D8               	btfss	status,2,c
  1749  0001FE  D034               	goto	i2l50
  1750                           
  1751                           ;mainproject.c: 76: LATCbits.LATC0=1;
  1752  000200  808B               	bsf	3979,0,c	;volatile
  1753                           
  1754                           ;mainproject.c: 77: LATCbits.LATC1=1;
  1755  000202  828B               	bsf	3979,1,c	;volatile
  1756                           
  1757                           ;mainproject.c: 78: LATCbits.LATC2=1;
  1758  000204  848B               	bsf	3979,2,c	;volatile
  1759                           
  1760                           ;mainproject.c: 79: LATCbits.LATC3=0;
  1761  000206  968B               	bcf	3979,3,c	;volatile
  1762                           
  1763                           ;mainproject.c: 80: LATDbits.LATD0=0;
  1764  000208  908C               	bcf	3980,0,c	;volatile
  1765                           
  1766                           ;mainproject.c: 81: LATDbits.LATD1=0;
  1767  00020A  928C               	bcf	3980,1,c	;volatile
  1768                           
  1769                           ;mainproject.c: 83: for(int i=0;i<140;i++){
  1770  00020C  0E00               	movlw	0
  1771  00020E  6E0A               	movwf	rgbshowone@i+1,c
  1772  000210  0E00               	movlw	0
  1773  000212  6E09               	movwf	rgbshowone@i,c
  1774  000214  BE0A               	btfsc	rgbshowone@i+1,7,c
  1775  000216  D008               	goto	i2l51
  1776  000218  500A               	movf	rgbshowone@i+1,w,c
  1777  00021A  E105               	bnz	i2u59_40
  1778  00021C  0E8C               	movlw	140
  1779  00021E  5C09               	subwf	rgbshowone@i,w,c
  1780  000220  B0D8               	btfsc	status,0,c
  1781  000222  0012               	return	
  1782  000224  D001               	goto	i2l51
  1783  000226                     i2u59_40:
  1784  000226  0012               	return	
  1785  000228                     i2l51:
  1786                           
  1787                           ;mainproject.c: 84: if((rval--)==0) LATCbits.LATC0=0;
  1788  000228  0601               	decf	rgbshowone@rval,f,c
  1789  00022A  A0D8               	btfss	status,0,c
  1790  00022C  0602               	decf	rgbshowone@rval+1,f,c
  1791  00022E  2801               	incf	rgbshowone@rval,w,c
  1792  000230  E103               	bnz	i2l1105
  1793  000232  2802               	incf	rgbshowone@rval+1,w,c
  1794  000234  B4D8               	btfsc	status,2,c
  1795  000236  908B               	bcf	3979,0,c	;volatile
  1796  000238                     i2l1105:
  1797                           
  1798                           ;mainproject.c: 85: if((gval--)==0) LATCbits.LATC1=0;
  1799  000238  0603               	decf	rgbshowone@gval,f,c
  1800  00023A  A0D8               	btfss	status,0,c
  1801  00023C  0604               	decf	rgbshowone@gval+1,f,c
  1802  00023E  2803               	incf	rgbshowone@gval,w,c
  1803  000240  E103               	bnz	i2l1109
  1804  000242  2804               	incf	rgbshowone@gval+1,w,c
  1805  000244  B4D8               	btfsc	status,2,c
  1806  000246  928B               	bcf	3979,1,c	;volatile
  1807  000248                     i2l1109:
  1808                           
  1809                           ;mainproject.c: 86: if((bval--)==0) LATCbits.LATC2=0;
  1810  000248  0605               	decf	rgbshowone@bval,f,c
  1811  00024A  A0D8               	btfss	status,0,c
  1812  00024C  0606               	decf	rgbshowone@bval+1,f,c
  1813  00024E  2805               	incf	rgbshowone@bval,w,c
  1814  000250  E103               	bnz	i2l1113
  1815  000252  2806               	incf	rgbshowone@bval+1,w,c
  1816  000254  B4D8               	btfsc	status,2,c
  1817  000256  948B               	bcf	3979,2,c	;volatile
  1818  000258                     i2l1113:
  1819  000258  4A09               	infsnz	rgbshowone@i,f,c
  1820  00025A  2A0A               	incf	rgbshowone@i+1,f,c
  1821  00025C  BE0A               	btfsc	rgbshowone@i+1,7,c
  1822  00025E  D7E4               	goto	i2l51
  1823  000260  500A               	movf	rgbshowone@i+1,w,c
  1824  000262  E101               	bnz	i2u63_40
  1825  000264  D7DB               	goto	L2
  1826  000266                     i2u63_40:
  1827                           
  1828                           ;mainproject.c: 87: }
  1829                           ;mainproject.c: 88: }
  1830  000266  0012               	return	
  1831  000268                     i2l50:
  1832                           
  1833                           ;mainproject.c: 90: else if(flag==1){
  1834  000268  0407               	decf	rgbshowone@flag,w,c
  1835  00026A  1008               	iorwf	rgbshowone@flag+1,w,c
  1836  00026C  A4D8               	btfss	status,2,c
  1837  00026E  D034               	goto	i2l57
  1838                           
  1839                           ;mainproject.c: 91: LATCbits.LATC0=0;
  1840  000270  908B               	bcf	3979,0,c	;volatile
  1841                           
  1842                           ;mainproject.c: 92: LATCbits.LATC1=0;
  1843  000272  928B               	bcf	3979,1,c	;volatile
  1844                           
  1845                           ;mainproject.c: 93: LATCbits.LATC2=0;
  1846  000274  948B               	bcf	3979,2,c	;volatile
  1847                           
  1848                           ;mainproject.c: 94: LATCbits.LATC3=1;
  1849  000276  868B               	bsf	3979,3,c	;volatile
  1850                           
  1851                           ;mainproject.c: 95: LATDbits.LATD0=1;
  1852  000278  808C               	bsf	3980,0,c	;volatile
  1853                           
  1854                           ;mainproject.c: 96: LATDbits.LATD1=1;
  1855  00027A  828C               	bsf	3980,1,c	;volatile
  1856                           
  1857                           ;mainproject.c: 98: for(int i=0;i<140;i++){
  1858  00027C  0E00               	movlw	0
  1859  00027E  6E0C               	movwf	rgbshowone@i_529+1,c
  1860  000280  0E00               	movlw	0
  1861  000282  6E0B               	movwf	rgbshowone@i_529,c
  1862  000284  BE0C               	btfsc	rgbshowone@i_529+1,7,c
  1863  000286  D008               	goto	i2l58
  1864  000288  500C               	movf	rgbshowone@i_529+1,w,c
  1865  00028A  E105               	bnz	i2u65_40
  1866  00028C  0E8C               	movlw	140
  1867  00028E  5C0B               	subwf	rgbshowone@i_529,w,c
  1868  000290  B0D8               	btfsc	status,0,c
  1869  000292  0012               	return	
  1870  000294  D001               	goto	i2l58
  1871  000296                     i2u65_40:
  1872  000296  0012               	return	
  1873  000298                     i2l58:
  1874                           
  1875                           ;mainproject.c: 99: if((rval--)==0) LATCbits.LATC3=0;
  1876  000298  0601               	decf	rgbshowone@rval,f,c
  1877  00029A  A0D8               	btfss	status,0,c
  1878  00029C  0602               	decf	rgbshowone@rval+1,f,c
  1879  00029E  2801               	incf	rgbshowone@rval,w,c
  1880  0002A0  E103               	bnz	i2l1131
  1881  0002A2  2802               	incf	rgbshowone@rval+1,w,c
  1882  0002A4  B4D8               	btfsc	status,2,c
  1883  0002A6  968B               	bcf	3979,3,c	;volatile
  1884  0002A8                     i2l1131:
  1885                           
  1886                           ;mainproject.c: 100: if((gval--)==0) LATDbits.LATD0=0;
  1887  0002A8  0603               	decf	rgbshowone@gval,f,c
  1888  0002AA  A0D8               	btfss	status,0,c
  1889  0002AC  0604               	decf	rgbshowone@gval+1,f,c
  1890  0002AE  2803               	incf	rgbshowone@gval,w,c
  1891  0002B0  E103               	bnz	i2l1135
  1892  0002B2  2804               	incf	rgbshowone@gval+1,w,c
  1893  0002B4  B4D8               	btfsc	status,2,c
  1894  0002B6  908C               	bcf	3980,0,c	;volatile
  1895  0002B8                     i2l1135:
  1896                           
  1897                           ;mainproject.c: 101: if((bval--)==0) LATDbits.LATD1=0;
  1898  0002B8  0605               	decf	rgbshowone@bval,f,c
  1899  0002BA  A0D8               	btfss	status,0,c
  1900  0002BC  0606               	decf	rgbshowone@bval+1,f,c
  1901  0002BE  2805               	incf	rgbshowone@bval,w,c
  1902  0002C0  E103               	bnz	i2l1139
  1903  0002C2  2806               	incf	rgbshowone@bval+1,w,c
  1904  0002C4  B4D8               	btfsc	status,2,c
  1905  0002C6  928C               	bcf	3980,1,c	;volatile
  1906  0002C8                     i2l1139:
  1907  0002C8  4A0B               	infsnz	rgbshowone@i_529,f,c
  1908  0002CA  2A0C               	incf	rgbshowone@i_529+1,f,c
  1909  0002CC  BE0C               	btfsc	rgbshowone@i_529+1,7,c
  1910  0002CE  D7E4               	goto	i2l58
  1911  0002D0  500C               	movf	rgbshowone@i_529+1,w,c
  1912  0002D2  E101               	bnz	i2u69_40
  1913  0002D4  D7DB               	goto	L3
  1914  0002D6                     i2u69_40:
  1915                           
  1916                           ;mainproject.c: 102: }
  1917                           ;mainproject.c: 103: }
  1918  0002D6  0012               	return	
  1919  0002D8                     i2l57:
  1920                           
  1921                           ;mainproject.c: 104: else if(flag==2){
  1922  0002D8  0E02               	movlw	2
  1923  0002DA  1807               	xorwf	rgbshowone@flag,w,c
  1924  0002DC  1008               	iorwf	rgbshowone@flag+1,w,c
  1925  0002DE  A4D8               	btfss	status,2,c
  1926  0002E0  D031               	goto	i2l64
  1927                           
  1928                           ;mainproject.c: 105: LATCbits.LATC7=1;
  1929  0002E2  8E8B               	bsf	3979,7,c	;volatile
  1930                           
  1931                           ;mainproject.c: 106: LATCbits.LATC6=1;
  1932  0002E4  8C8B               	bsf	3979,6,c	;volatile
  1933                           
  1934                           ;mainproject.c: 107: LATCbits.LATC5=1;
  1935  0002E6  8A8B               	bsf	3979,5,c	;volatile
  1936                           
  1937                           ;mainproject.c: 108: LATCbits.LATC4=0;
  1938  0002E8  988B               	bcf	3979,4,c	;volatile
  1939                           
  1940                           ;mainproject.c: 109: LATDbits.LATD3=0;
  1941  0002EA  968C               	bcf	3980,3,c	;volatile
  1942                           
  1943                           ;mainproject.c: 110: LATDbits.LATD2=0;
  1944  0002EC  948C               	bcf	3980,2,c	;volatile
  1945                           
  1946                           ;mainproject.c: 111: for(int i=0;i<140;i++){
  1947  0002EE  0E00               	movlw	0
  1948  0002F0  6E0E               	movwf	rgbshowone@i_530+1,c
  1949  0002F2  0E00               	movlw	0
  1950  0002F4  6E0D               	movwf	rgbshowone@i_530,c
  1951  0002F6  BE0E               	btfsc	rgbshowone@i_530+1,7,c
  1952  0002F8  D006               	goto	i2l65
  1953  0002FA  500E               	movf	rgbshowone@i_530+1,w,c
  1954  0002FC  E155               	bnz	i2l56
  1955  0002FE  0E8C               	movlw	140
  1956  000300  5C0D               	subwf	rgbshowone@i_530,w,c
  1957  000302  B0D8               	btfsc	status,0,c
  1958  000304  0012               	return	
  1959  000306                     i2l65:
  1960                           
  1961                           ;mainproject.c: 112: if((rval--)==0) LATCbits.LATC7=0;
  1962  000306  0601               	decf	rgbshowone@rval,f,c
  1963  000308  A0D8               	btfss	status,0,c
  1964  00030A  0602               	decf	rgbshowone@rval+1,f,c
  1965  00030C  2801               	incf	rgbshowone@rval,w,c
  1966  00030E  E103               	bnz	i2l1157
  1967  000310  2802               	incf	rgbshowone@rval+1,w,c
  1968  000312  B4D8               	btfsc	status,2,c
  1969  000314  9E8B               	bcf	3979,7,c	;volatile
  1970  000316                     i2l1157:
  1971                           
  1972                           ;mainproject.c: 113: if((gval--)==0) LATCbits.LATC6=0;
  1973  000316  0603               	decf	rgbshowone@gval,f,c
  1974  000318  A0D8               	btfss	status,0,c
  1975  00031A  0604               	decf	rgbshowone@gval+1,f,c
  1976  00031C  2803               	incf	rgbshowone@gval,w,c
  1977  00031E  E103               	bnz	i2l1161
  1978  000320  2804               	incf	rgbshowone@gval+1,w,c
  1979  000322  B4D8               	btfsc	status,2,c
  1980  000324  9C8B               	bcf	3979,6,c	;volatile
  1981  000326                     i2l1161:
  1982                           
  1983                           ;mainproject.c: 114: if((bval--)==0) LATCbits.LATC5=0;
  1984  000326  0605               	decf	rgbshowone@bval,f,c
  1985  000328  A0D8               	btfss	status,0,c
  1986  00032A  0606               	decf	rgbshowone@bval+1,f,c
  1987  00032C  2805               	incf	rgbshowone@bval,w,c
  1988  00032E  E103               	bnz	i2l1165
  1989  000330  2806               	incf	rgbshowone@bval+1,w,c
  1990  000332  B4D8               	btfsc	status,2,c
  1991  000334  9A8B               	bcf	3979,5,c	;volatile
  1992  000336                     i2l1165:
  1993  000336  4A0D               	infsnz	rgbshowone@i_530,f,c
  1994  000338  2A0E               	incf	rgbshowone@i_530+1,f,c
  1995  00033A  BE0E               	btfsc	rgbshowone@i_530+1,7,c
  1996  00033C  D7E4               	goto	i2l65
  1997  00033E  500E               	movf	rgbshowone@i_530+1,w,c
  1998  000340  E133               	bnz	i2l77
  1999  000342  D7DD               	goto	L4
  2000  000344                     i2l64:
  2001                           
  2002                           ;mainproject.c: 118: else if(flag==3){
  2003  000344  0E03               	movlw	3
  2004  000346  1807               	xorwf	rgbshowone@flag,w,c
  2005  000348  1008               	iorwf	rgbshowone@flag+1,w,c
  2006  00034A  A4D8               	btfss	status,2,c
  2007  00034C  0012               	return	
  2008                           
  2009                           ;mainproject.c: 119: LATCbits.LATC7=0;
  2010  00034E  9E8B               	bcf	3979,7,c	;volatile
  2011                           
  2012                           ;mainproject.c: 120: LATCbits.LATC6=0;
  2013  000350  9C8B               	bcf	3979,6,c	;volatile
  2014                           
  2015                           ;mainproject.c: 121: LATCbits.LATC5=0;
  2016  000352  9A8B               	bcf	3979,5,c	;volatile
  2017                           
  2018                           ;mainproject.c: 122: LATCbits.LATC4=1;
  2019  000354  888B               	bsf	3979,4,c	;volatile
  2020                           
  2021                           ;mainproject.c: 123: LATDbits.LATD3=1;
  2022  000356  868C               	bsf	3980,3,c	;volatile
  2023                           
  2024                           ;mainproject.c: 124: LATDbits.LATD2=1;
  2025  000358  848C               	bsf	3980,2,c	;volatile
  2026                           
  2027                           ;mainproject.c: 126: for(int i=0;i<140;i++){
  2028  00035A  0E00               	movlw	0
  2029  00035C  6E10               	movwf	rgbshowone@i_531+1,c
  2030  00035E  0E00               	movlw	0
  2031  000360  6E0F               	movwf	rgbshowone@i_531,c
  2032  000362                     i2l1175:
  2033  000362  BE10               	btfsc	rgbshowone@i_531+1,7,c
  2034  000364  D006               	goto	i2l72
  2035  000366  5010               	movf	rgbshowone@i_531+1,w,c
  2036  000368  E11F               	bnz	i2l77
  2037  00036A  0E8C               	movlw	140
  2038  00036C  5C0F               	subwf	rgbshowone@i_531,w,c
  2039  00036E  B0D8               	btfsc	status,0,c
  2040  000370  0012               	return	
  2041  000372                     i2l72:
  2042                           
  2043                           ;mainproject.c: 127: if((rval--)==0) LATCbits.LATC4=0;
  2044  000372  0601               	decf	rgbshowone@rval,f,c
  2045  000374  A0D8               	btfss	status,0,c
  2046  000376  0602               	decf	rgbshowone@rval+1,f,c
  2047  000378  2801               	incf	rgbshowone@rval,w,c
  2048  00037A  E103               	bnz	i2l1183
  2049  00037C  2802               	incf	rgbshowone@rval+1,w,c
  2050  00037E  B4D8               	btfsc	status,2,c
  2051  000380  988B               	bcf	3979,4,c	;volatile
  2052  000382                     i2l1183:
  2053                           
  2054                           ;mainproject.c: 128: if((gval--)==0) LATDbits.LATD3=0;
  2055  000382  0603               	decf	rgbshowone@gval,f,c
  2056  000384  A0D8               	btfss	status,0,c
  2057  000386  0604               	decf	rgbshowone@gval+1,f,c
  2058  000388  2803               	incf	rgbshowone@gval,w,c
  2059  00038A  E103               	bnz	i2l1187
  2060  00038C  2804               	incf	rgbshowone@gval+1,w,c
  2061  00038E  B4D8               	btfsc	status,2,c
  2062  000390  968C               	bcf	3980,3,c	;volatile
  2063  000392                     i2l1187:
  2064                           
  2065                           ;mainproject.c: 129: if((bval--)==0) LATDbits.LATD2=0;
  2066  000392  0605               	decf	rgbshowone@bval,f,c
  2067  000394  A0D8               	btfss	status,0,c
  2068  000396  0606               	decf	rgbshowone@bval+1,f,c
  2069  000398  2805               	incf	rgbshowone@bval,w,c
  2070  00039A  E103               	bnz	i2l1191
  2071  00039C  2806               	incf	rgbshowone@bval+1,w,c
  2072  00039E  B4D8               	btfsc	status,2,c
  2073  0003A0  948C               	bcf	3980,2,c	;volatile
  2074  0003A2                     i2l1191:
  2075  0003A2  4A0F               	infsnz	rgbshowone@i_531,f,c
  2076  0003A4  2A10               	incf	rgbshowone@i_531+1,f,c
  2077  0003A6  D7DD               	goto	i2l1175
  2078  0003A8                     i2l56:
  2079  0003A8                     i2l77:
  2080  0003A8  0012               	return		;funcret
  2081  0003AA                     __end_of_rgbshowone:
  2082                           	opt stack 0
  2083  0000                     pclatu	equ	0xFFB
  2084                           pclath	equ	0xFFA
  2085                           tblptru	equ	0xFF8
  2086                           tblptrh	equ	0xFF7
  2087                           tblptrl	equ	0xFF6
  2088                           tablat	equ	0xFF5
  2089                           prodh	equ	0xFF4
  2090                           prodl	equ	0xFF3
  2091                           intcon	equ	0xFF2
  2092                           intcon2	equ	0xFF1
  2093                           postinc0	equ	0xFEE
  2094                           fsr0h	equ	0xFEA
  2095                           fsr0l	equ	0xFE9
  2096                           wreg	equ	0xFE8
  2097                           fsr1h	equ	0xFE2
  2098                           fsr1l	equ	0xFE1
  2099                           fsr2h	equ	0xFDA
  2100                           fsr2l	equ	0xFD9
  2101                           status	equ	0xFD8
  2102                           pclatu	equ	0xFFB
  2103                           pclath	equ	0xFFA
  2104                           tblptru	equ	0xFF8
  2105                           tblptrh	equ	0xFF7
  2106                           tblptrl	equ	0xFF6
  2107                           tablat	equ	0xFF5
  2108                           prodh	equ	0xFF4
  2109                           prodl	equ	0xFF3
  2110                           intcon	equ	0xFF2
  2111                           intcon2	equ	0xFF1
  2112                           postinc0	equ	0xFEE
  2113                           fsr0h	equ	0xFEA
  2114                           fsr0l	equ	0xFE9
  2115                           wreg	equ	0xFE8
  2116                           fsr1h	equ	0xFE2
  2117                           fsr1l	equ	0xFE1
  2118                           fsr2h	equ	0xFDA
  2119                           fsr2l	equ	0xFD9
  2120                           status	equ	0xFD8
  2121                           
  2122                           	psect	rparam
  2123  0000                     pclatu	equ	0xFFB
  2124                           pclath	equ	0xFFA
  2125                           tblptru	equ	0xFF8
  2126                           tblptrh	equ	0xFF7
  2127                           tblptrl	equ	0xFF6
  2128                           tablat	equ	0xFF5
  2129                           prodh	equ	0xFF4
  2130                           prodl	equ	0xFF3
  2131                           intcon	equ	0xFF2
  2132                           intcon2	equ	0xFF1
  2133                           postinc0	equ	0xFEE
  2134                           fsr0h	equ	0xFEA
  2135                           fsr0l	equ	0xFE9
  2136                           wreg	equ	0xFE8
  2137                           fsr1h	equ	0xFE2
  2138                           fsr1l	equ	0xFE1
  2139                           fsr2h	equ	0xFDA
  2140                           fsr2l	equ	0xFD9
  2141                           status	equ	0xFD8
  2142                           
  2143                           	psect	temp
  2144  00004A                     btemp:
  2145                           	opt stack 0
  2146  00004A                     	ds	1
  2147  0000                     int$flags	set	btemp
  2148  0000                     wtemp6	set	btemp+1
  2149                           pclatu	equ	0xFFB
  2150                           pclath	equ	0xFFA
  2151                           tblptru	equ	0xFF8
  2152                           tblptrh	equ	0xFF7
  2153                           tblptrl	equ	0xFF6
  2154                           tablat	equ	0xFF5
  2155                           prodh	equ	0xFF4
  2156                           prodl	equ	0xFF3
  2157                           intcon	equ	0xFF2
  2158                           intcon2	equ	0xFF1
  2159                           postinc0	equ	0xFEE
  2160                           fsr0h	equ	0xFEA
  2161                           fsr0l	equ	0xFE9
  2162                           wreg	equ	0xFE8
  2163                           fsr1h	equ	0xFE2
  2164                           fsr1l	equ	0xFE1
  2165                           fsr2h	equ	0xFDA
  2166                           fsr2l	equ	0xFD9
  2167                           status	equ	0xFD8


Data Sizes:
    Strings     0
    Constant    0
    Data        0
    BSS         17
    Persistent  0
    Stack       0

Auto Spaces:
    Space          Size  Autos    Used
    COMRAM          126     56      73
    BANK0           128      4       4
    BANK1           256      0       0
    BANK2           256      0       0
    BANK3           256      0       0
    BANK4           256      0       0
    BANK5           239      0       0

Pointer List with Targets:

    None.

Critical Paths under _main in COMRAM

    _wstart->_wshow

Critical Paths under _Hi in COMRAM

    _rgbstart->_rgbshow
    _rgbshow->_rgbshowsix

Critical Paths under _main in BANK0

    None.

Critical Paths under _Hi in BANK0

    None.

Critical Paths under _main in BANK1

    None.

Critical Paths under _Hi in BANK1

    None.

Critical Paths under _main in BANK2

    None.

Critical Paths under _Hi in BANK2

    None.

Critical Paths under _main in BANK3

    None.

Critical Paths under _Hi in BANK3

    None.

Critical Paths under _main in BANK4

    None.

Critical Paths under _Hi in BANK4

    None.

Critical Paths under _main in BANK5

    None.

Critical Paths under _Hi in BANK5

    None.

Call Graph Tables:

 ---------------------------------------------------------------------------------
 (Depth) Function   	        Calls       Base Space   Used Autos Params    Refs
 ---------------------------------------------------------------------------------
 (0) _main                                                 4     4      0     356
                                              0 BANK0      4     4      0
                               _init
                             _wstart
 ---------------------------------------------------------------------------------
 (1) _wstart                                               0     0      0     279
                              _wshow
 ---------------------------------------------------------------------------------
 (2) _wshow                                                4     2      2     279
                                             52 COMRAM     4     2      2
 ---------------------------------------------------------------------------------
 (1) _init                                                 0     0      0       0
 ---------------------------------------------------------------------------------
 Estimated maximum stack depth 2
 ---------------------------------------------------------------------------------
 (Depth) Function   	        Calls       Base Space   Used Autos Params    Refs
 ---------------------------------------------------------------------------------
 (3) _Hi                                                  18    18      0    5273
                                             34 COMRAM    18    18      0
                           _rgbstart
 ---------------------------------------------------------------------------------
 (4) _rgbstart                                             0     0      0    5273
                            _rgbshow
                            _zerorgb
 ---------------------------------------------------------------------------------
 (5) _zerorgb                                              0     0      0       0
 ---------------------------------------------------------------------------------
 (5) _rgbshow                                             16     2     14    5273
                                             18 COMRAM    16     2     14
                         _rgbshowone
                         _rgbshowsix
 ---------------------------------------------------------------------------------
 (6) _rgbshowsix                                          18     4     14     932
                                              0 COMRAM    18     4     14
 ---------------------------------------------------------------------------------
 (6) _rgbshowone                                          16     8      8     840
                                              0 COMRAM    16     8      8
 ---------------------------------------------------------------------------------
 Estimated maximum stack depth 6
 ---------------------------------------------------------------------------------

 Call Graph Graphs:

 _main (ROOT)
   _init
   _wstart
     _wshow

 _Hi (ROOT)
   _rgbstart
     _rgbshow
       _rgbshowone
       _rgbshowsix
     _zerorgb

 Address spaces:
Name               Size   Autos  Total    Cost      Usage
BIGRAM             5EE      0       0      16        0.0%
EEDATA             100      0       0       0        0.0%
BITBANK4           100      0       0      11        0.0%
BANK4              100      0       0      12        0.0%
BITBANK3           100      0       0       9        0.0%
BANK3              100      0       0      10        0.0%
BITBANK2           100      0       0       7        0.0%
BANK2              100      0       0       8        0.0%
BITBANK1           100      0       0       5        0.0%
BANK1              100      0       0       6        0.0%
BITBANK5            EF      0       0      15        0.0%
BANK5               EF      0       0      13        0.0%
BITBANK0            80      0       0       3        0.0%
BANK0               80      4       4       4        3.1%
BITCOMRAM           7E      0       0       0        0.0%
COMRAM              7E     38      49       1       57.9%
BITSFR_5             0      0       0     200        0.0%
SFR_5                0      0       0     200        0.0%
BITSFR_4             0      0       0     200        0.0%
SFR_4                0      0       0     200        0.0%
BITSFR_3             0      0       0     200        0.0%
SFR_3                0      0       0     200        0.0%
BITSFR_2             0      0       0     200        0.0%
SFR_2                0      0       0     200        0.0%
BITSFR_1             0      0       0     200        0.0%
SFR_1                0      0       0     200        0.0%
BITSFR               0      0       0     200        0.0%
SFR                  0      0       0     200        0.0%
STACK                0      0       0       2        0.0%
NULL                 0      0       0       0        0.0%
ABS                  0      0      4D      14        0.0%
DATA                 0      0      4D      17        0.0%
CODE                 0      0       0       0        0.0%


Microchip Technology PIC18 Macro Assembler V1.44 build -154322312 
Symbol Table                                                                                   Fri Dec 22 19:15:16 2017

        rgbshowone@i_530 000D          rgbshowone@i_531 000F          rgbshowone@i_529 000B  
         rgbshowone@flag 0007           rgbshowone@bval 0005           rgbshowone@gval 0003  
         rgbshowone@rval 0001                       _Hi 0008           rgbshowsix@flag 000D  
         rgbshowsix@bval 0005           rgbshowsix@gval 0003                      ?_Hi 0001  
         rgbshowsix@rval 0001                      l131 07A8                      l134 0750  
                    l135 0740                      l151 06A6                      l128 0792  
                    l152 06DE                      l137 076E                      l153 06BC  
                    l138 075C                      l154 06CA                      l155 06C4  
                    _RB5 007C0D             __CFG_CPD$OFF 000000                      _red 0048  
                    wreg 000FE8          rgbshowsix@i_541 0011                     ??_Hi 0023  
        rgbshowsix@bval2 000B          rgbshowsix@gval2 0009             __CFG_LVP$OFF 000000  
        rgbshowsix@rval2 0007             __CFG_WDT$OFF 000000                     l1433 06BC  
                   l1435 06C4                     l1381 07A2                     l1373 0782  
                   u1200 06D8                     u1210 06EC                     _LATC 000F8B  
                   _LATD 000F8C                     i2l50 0268                     i2l51 0228  
                   i2l56 03A8                     i2l72 0372                     i2l64 0344  
                   i2l80 0456                     i2l65 0306                     i2l57 02D8  
                   i2l81 03E8                     i2l58 0298                     i2l91 0490  
                   i2l77 03A8                     i2l89 04F6                     i2l99 04F6  
                   _blue 0044                     _red2 0042                     _main 06A2  
                   _init 063C                     fsr0h 000FEA                     fsr1h 000FE2  
                   fsr2h 000FDA                     fsr0l 000FE9                     fsr1l 000FE1  
                   fsr2l 000FD9                     btemp 004A            __CFG_BOREN$ON 000000  
                   prodh 000FF4                     prodl 000FF3                     start 000E  
          __CFG_MCLRE$ON 000000             ___param_bank 000000                    ?_main 0001  
                  ?_init 0001                    i2l103 05DC                    i2l104 05B8  
                  i2l120 00AA                    i2l122 01E2                    i2l107 062A  
                  i2l123 0152                    i2l108 05EE                    i2l116 0098  
                  i2l117 0014                    i2l119 013A                    i2l145 0552  
                  _TRISC 000F94                    _TRISD 000F95            __CFG_PWRT$OFF 000000  
                  _blue2 003E                    _green 0046                    _white 003C  
                  main@k 0080                    main@l 0082                    _wshow 0778  
        __end_of_rgbshow 063C                    pclath 000FFA                    tablat 000FF5  
                  status 000FD8                    wtemp6 004B          __end_of_zerorgb 073E  
        __initialization 07AA             __end_of_main 06F4             __end_of_init 06A2  
                 ??_main 0039                   ??_init 0035            __activetblptr 000000  
                 ?_wshow 0035                   i2l1113 0258                   i2l1105 0238  
                 i2l1131 02A8                   i2l1109 0248                   i2l1221 0428  
                 i2l1213 0408                   i2l1135 02B8                   i2l1161 0326  
                 i2l1225 0438                   i2l1217 0418                   i2l1209 03F8  
                 i2l1321 01F2                   i2l1139 02C8                   i2l1251 04B0  
                 i2l1165 0336                   i2l1157 0316                   i2l1229 0448  
                 i2l1191 03A2                   i2l1183 0382                   i2l1175 0362  
                 i2l1263 04E0                   i2l1255 04C0                   i2l1247 04A0  
                 i2l1239 0480                   i2l1281 05EE                   i2l1187 0392  
                 i2l1267 04F0                   i2l1259 04D0                   i2l1283 062A  
                 i2l1277 05B8                   _green2 0040                   clear_0 07B0  
                 _wstart 073E         __end_of_rgbstart 01F8                ??_rgbshow 0021  
                 tblptrh 000FF7                   tblptrl 000FF6                   tblptru 000FF8  
                 wshow@i 0037                ??_zerorgb 0001               __accesstop 0080  
__end_of__initialization 07B6          __CFG_PBADEN$OFF 000000            ___rparam_used 000001  
         __pcstackCOMRAM 0001            __end_of_wshow 07AA               __end_of_Hi 059E  
                ??_wshow 0037                  ?_wstart 0001              rgbshow@flag 001F  
            rgbshow@bval 0017              rgbshow@gval 0015              rgbshow@rval 0013  
                i2u63_40 0266                  i2u65_40 0296                  i2u59_40 0226  
                i2u83_40 03E6                  i2u69_40 02D6              rgbshowone@i 0009  
            rgbshowsix@i 000F                  __Hparam 0000                ?_rgbstart 0001  
                __Lparam 0000                  __pcinit 07AA                  __ramtop 0600  
                __ptext0 06A2                  __ptext1 073E                  __ptext2 0778  
                __ptext3 063C                  __ptext5 0012                  __ptext6 06F4  
                __ptext7 059E                  __ptext8 03AA                  __ptext9 01F8  
        __size_of_wstart 003A                  _rgbshow 059E           __pintcode_body 04F8  
                _zerorgb 06F4     end_of_initialization 07B6               _rgbshowone 01F8  
             _rgbshowsix 03AA                  int_func 04F8               ??_rgbstart 0023  
                postinc0 000FEE                _PORTBbits 000F81                _TRISBbits 000F93  
    start_initialization 07AA           __end_of_wstart 0778              ?_rgbshowone 0001  
            ?_rgbshowsix 0001         __CFG_OSC$INTIO67 000000                 ??_wstart 0039  
            __pbssCOMRAM 0039            __pcstackBANK0 0080                __pintcode 0008  
      __size_of_rgbstart 01E6      __size_of_rgbshowone 01B2      __size_of_rgbshowsix 014E  
               ?_rgbshow 0013                 ?_zerorgb 0001              __size_of_Hi 0596  
         __size_of_wshow 0032                 _LATBbits 000F8A                 _LATCbits 000F8B  
               _LATDbits 000F8C             rgbshow@bval2 001D             rgbshow@gval2 001B  
               i2u107_40 014A             rgbshow@rval2 0019                 _RCONbits 000FD0  
            _INTCON2bits 000FF1                 __Hrparam 0000                 __Lrparam 0000  
       __size_of_rgbshow 009E                 _distance 0039         __size_of_zerorgb 004A  
           ??_rgbshowone 0009             ??_rgbshowsix 000F            __size_of_main 0052  
          __size_of_init 0066                 _rgbstart 0012                 int$flags 004A  
     __end_of_rgbshowone 03AA       __end_of_rgbshowsix 04F8               _INTCONbits 000FF2  
               intlevel2 0000                 rgbshow@i 0021               _OSCCONbits 000FD3  
              wshow@wval 0035  
